
Camera.elf:     file format elf32-littlearm

Sections:
Idx Name          Size      VMA       LMA       File off  Algn
  0 .isr_vector   000001e4  08000000  08000000  00010000  2**0
                  CONTENTS, ALLOC, LOAD, READONLY, DATA
  1 .text         00003414  080001e4  080001e4  000101e4  2**2
                  CONTENTS, ALLOC, LOAD, READONLY, CODE
  2 .rodata       00000624  080035f8  080035f8  000135f8  2**2
                  CONTENTS, ALLOC, LOAD, READONLY, DATA
  3 .ARM.extab    00000000  08003c1c  08003c1c  000200a8  2**0
                  CONTENTS
  4 .ARM          00000000  08003c1c  08003c1c  000200a8  2**0
                  CONTENTS
  5 .preinit_array 00000000  08003c1c  08003c1c  000200a8  2**0
                  CONTENTS, ALLOC, LOAD, DATA
  6 .init_array   00000004  08003c1c  08003c1c  00013c1c  2**2
                  CONTENTS, ALLOC, LOAD, DATA
  7 .fini_array   00000004  08003c20  08003c20  00013c20  2**2
                  CONTENTS, ALLOC, LOAD, DATA
  8 .data         000000a8  20000000  08003c24  00020000  2**2
                  CONTENTS, ALLOC, LOAD, DATA
  9 .bss          000000f0  200000a8  08003ccc  000200a8  2**2
                  ALLOC
 10 ._user_heap_stack 00000600  20000198  08003ccc  00020198  2**0
                  ALLOC
 11 .ARM.attributes 00000029  00000000  00000000  000200a8  2**0
                  CONTENTS, READONLY
 12 .comment      00000043  00000000  00000000  000200d1  2**0
                  CONTENTS, READONLY
 13 .debug_info   00009297  00000000  00000000  00020114  2**0
                  CONTENTS, READONLY, DEBUGGING, OCTETS
 14 .debug_abbrev 00002804  00000000  00000000  000293ab  2**0
                  CONTENTS, READONLY, DEBUGGING, OCTETS
 15 .debug_aranges 00000a10  00000000  00000000  0002bbb0  2**3
                  CONTENTS, READONLY, DEBUGGING, OCTETS
 16 .debug_rnglists 0000079f  00000000  00000000  0002c5c0  2**0
                  CONTENTS, READONLY, DEBUGGING, OCTETS
 17 .debug_macro  000184c5  00000000  00000000  0002cd5f  2**0
                  CONTENTS, READONLY, DEBUGGING, OCTETS
 18 .debug_line   0000dee0  00000000  00000000  00045224  2**0
                  CONTENTS, READONLY, DEBUGGING, OCTETS
 19 .debug_str    0007a825  00000000  00000000  00053104  2**0
                  CONTENTS, READONLY, DEBUGGING, OCTETS
 20 .debug_frame  00002620  00000000  00000000  000cd92c  2**2
                  CONTENTS, READONLY, DEBUGGING, OCTETS
 21 .debug_line_str 0000009d  00000000  00000000  000cff4c  2**0
                  CONTENTS, READONLY, DEBUGGING, OCTETS

Disassembly of section .text:

080001e4 <__do_global_dtors_aux>:
 80001e4:	b510      	push	{r4, lr}
 80001e6:	4c05      	ldr	r4, [pc, #20]	; (80001fc <__do_global_dtors_aux+0x18>)
 80001e8:	7823      	ldrb	r3, [r4, #0]
 80001ea:	b933      	cbnz	r3, 80001fa <__do_global_dtors_aux+0x16>
 80001ec:	4b04      	ldr	r3, [pc, #16]	; (8000200 <__do_global_dtors_aux+0x1c>)
 80001ee:	b113      	cbz	r3, 80001f6 <__do_global_dtors_aux+0x12>
 80001f0:	4804      	ldr	r0, [pc, #16]	; (8000204 <__do_global_dtors_aux+0x20>)
 80001f2:	f3af 8000 	nop.w
 80001f6:	2301      	movs	r3, #1
 80001f8:	7023      	strb	r3, [r4, #0]
 80001fa:	bd10      	pop	{r4, pc}
 80001fc:	200000a8 	.word	0x200000a8
 8000200:	00000000 	.word	0x00000000
 8000204:	080035e0 	.word	0x080035e0

08000208 <frame_dummy>:
 8000208:	b508      	push	{r3, lr}
 800020a:	4b03      	ldr	r3, [pc, #12]	; (8000218 <frame_dummy+0x10>)
 800020c:	b11b      	cbz	r3, 8000216 <frame_dummy+0xe>
 800020e:	4903      	ldr	r1, [pc, #12]	; (800021c <frame_dummy+0x14>)
 8000210:	4803      	ldr	r0, [pc, #12]	; (8000220 <frame_dummy+0x18>)
 8000212:	f3af 8000 	nop.w
 8000216:	bd08      	pop	{r3, pc}
 8000218:	00000000 	.word	0x00000000
 800021c:	200000ac 	.word	0x200000ac
 8000220:	080035e0 	.word	0x080035e0

08000224 <writeDataIntoAllFaces>:
#include "main.h"
#include "lcd.h"

extern uint8_t Ov7725_vsync;

void writeDataIntoAllFaces(char* AllFaces, char* OneFace, int num) {
 8000224:	b480      	push	{r7}
 8000226:	b087      	sub	sp, #28
 8000228:	af00      	add	r7, sp, #0
 800022a:	60f8      	str	r0, [r7, #12]
 800022c:	60b9      	str	r1, [r7, #8]
 800022e:	607a      	str	r2, [r7, #4]
	for (int i=0; i<9; ++i) {
 8000230:	2300      	movs	r3, #0
 8000232:	617b      	str	r3, [r7, #20]
 8000234:	e010      	b.n	8000258 <writeDataIntoAllFaces+0x34>
		AllFaces[num*9+i] = OneFace[i];
 8000236:	697b      	ldr	r3, [r7, #20]
 8000238:	68ba      	ldr	r2, [r7, #8]
 800023a:	18d1      	adds	r1, r2, r3
 800023c:	687a      	ldr	r2, [r7, #4]
 800023e:	4613      	mov	r3, r2
 8000240:	00db      	lsls	r3, r3, #3
 8000242:	441a      	add	r2, r3
 8000244:	697b      	ldr	r3, [r7, #20]
 8000246:	4413      	add	r3, r2
 8000248:	461a      	mov	r2, r3
 800024a:	68fb      	ldr	r3, [r7, #12]
 800024c:	4413      	add	r3, r2
 800024e:	780a      	ldrb	r2, [r1, #0]
 8000250:	701a      	strb	r2, [r3, #0]
	for (int i=0; i<9; ++i) {
 8000252:	697b      	ldr	r3, [r7, #20]
 8000254:	3301      	adds	r3, #1
 8000256:	617b      	str	r3, [r7, #20]
 8000258:	697b      	ldr	r3, [r7, #20]
 800025a:	2b08      	cmp	r3, #8
 800025c:	ddeb      	ble.n	8000236 <writeDataIntoAllFaces+0x12>
	}
}
 800025e:	bf00      	nop
 8000260:	bf00      	nop
 8000262:	371c      	adds	r7, #28
 8000264:	46bd      	mov	sp, r7
 8000266:	bc80      	pop	{r7}
 8000268:	4770      	bx	lr

0800026a <convertColor2RGB>:

void printArray(char* Array) {
	LCD_DrawString(10, 260, Array);
}

uint16_t convertColor2RGB(char Color) { // need change
 800026a:	b480      	push	{r7}
 800026c:	b083      	sub	sp, #12
 800026e:	af00      	add	r7, sp, #0
 8000270:	4603      	mov	r3, r0
 8000272:	71fb      	strb	r3, [r7, #7]
	if (Color == 'W') {
 8000274:	79fb      	ldrb	r3, [r7, #7]
 8000276:	2b57      	cmp	r3, #87	; 0x57
 8000278:	d102      	bne.n	8000280 <convertColor2RGB+0x16>
		return WHITE;
 800027a:	f64f 73ff 	movw	r3, #65535	; 0xffff
 800027e:	e01e      	b.n	80002be <convertColor2RGB+0x54>
	}
	if (Color == 'O') {
 8000280:	79fb      	ldrb	r3, [r7, #7]
 8000282:	2b4f      	cmp	r3, #79	; 0x4f
 8000284:	d102      	bne.n	800028c <convertColor2RGB+0x22>
		return ORANGE;
 8000286:	f64f 33e0 	movw	r3, #64480	; 0xfbe0
 800028a:	e018      	b.n	80002be <convertColor2RGB+0x54>
	}
	if (Color == 'G') {
 800028c:	79fb      	ldrb	r3, [r7, #7]
 800028e:	2b47      	cmp	r3, #71	; 0x47
 8000290:	d102      	bne.n	8000298 <convertColor2RGB+0x2e>
		return GREEN;
 8000292:	f44f 63fc 	mov.w	r3, #2016	; 0x7e0
 8000296:	e012      	b.n	80002be <convertColor2RGB+0x54>
	}
	if (Color == 'Y') {
 8000298:	79fb      	ldrb	r3, [r7, #7]
 800029a:	2b59      	cmp	r3, #89	; 0x59
 800029c:	d102      	bne.n	80002a4 <convertColor2RGB+0x3a>
		return YELLOW;
 800029e:	f64f 73e0 	movw	r3, #65504	; 0xffe0
 80002a2:	e00c      	b.n	80002be <convertColor2RGB+0x54>
	}
	if (Color == 'B') {
 80002a4:	79fb      	ldrb	r3, [r7, #7]
 80002a6:	2b42      	cmp	r3, #66	; 0x42
 80002a8:	d101      	bne.n	80002ae <convertColor2RGB+0x44>
		return BLUE;
 80002aa:	231f      	movs	r3, #31
 80002ac:	e007      	b.n	80002be <convertColor2RGB+0x54>
	}
	if (Color == 'R') {
 80002ae:	79fb      	ldrb	r3, [r7, #7]
 80002b0:	2b52      	cmp	r3, #82	; 0x52
 80002b2:	d102      	bne.n	80002ba <convertColor2RGB+0x50>
		return DARK_RED;
 80002b4:	f44f 4308 	mov.w	r3, #34816	; 0x8800
 80002b8:	e001      	b.n	80002be <convertColor2RGB+0x54>
	}
	return CYAN; // a color to indicate wrong color
 80002ba:	f647 73ff 	movw	r3, #32767	; 0x7fff
}
 80002be:	4618      	mov	r0, r3
 80002c0:	370c      	adds	r7, #12
 80002c2:	46bd      	mov	sp, r7
 80002c4:	bc80      	pop	{r7}
 80002c6:	4770      	bx	lr

080002c8 <stringCompare>:

int stringCompare(char* target, char* src, int size) {
 80002c8:	b480      	push	{r7}
 80002ca:	b087      	sub	sp, #28
 80002cc:	af00      	add	r7, sp, #0
 80002ce:	60f8      	str	r0, [r7, #12]
 80002d0:	60b9      	str	r1, [r7, #8]
 80002d2:	607a      	str	r2, [r7, #4]
	for (int i=0; i<size; ++i) {
 80002d4:	2300      	movs	r3, #0
 80002d6:	617b      	str	r3, [r7, #20]
 80002d8:	e00e      	b.n	80002f8 <stringCompare+0x30>
		if (target[i] != src[i]) {
 80002da:	697b      	ldr	r3, [r7, #20]
 80002dc:	68fa      	ldr	r2, [r7, #12]
 80002de:	4413      	add	r3, r2
 80002e0:	781a      	ldrb	r2, [r3, #0]
 80002e2:	697b      	ldr	r3, [r7, #20]
 80002e4:	68b9      	ldr	r1, [r7, #8]
 80002e6:	440b      	add	r3, r1
 80002e8:	781b      	ldrb	r3, [r3, #0]
 80002ea:	429a      	cmp	r2, r3
 80002ec:	d001      	beq.n	80002f2 <stringCompare+0x2a>
			return 1;
 80002ee:	2301      	movs	r3, #1
 80002f0:	e007      	b.n	8000302 <stringCompare+0x3a>
	for (int i=0; i<size; ++i) {
 80002f2:	697b      	ldr	r3, [r7, #20]
 80002f4:	3301      	adds	r3, #1
 80002f6:	617b      	str	r3, [r7, #20]
 80002f8:	697a      	ldr	r2, [r7, #20]
 80002fa:	687b      	ldr	r3, [r7, #4]
 80002fc:	429a      	cmp	r2, r3
 80002fe:	dbec      	blt.n	80002da <stringCompare+0x12>
		}
	}
	return 0;
 8000300:	2300      	movs	r3, #0
}
 8000302:	4618      	mov	r0, r3
 8000304:	371c      	adds	r7, #28
 8000306:	46bd      	mov	sp, r7
 8000308:	bc80      	pop	{r7}
 800030a:	4770      	bx	lr

0800030c <printFace>:
////		}
////	}
//	return;
//}

void printFace(char* SquareOfOneFace) {
 800030c:	b580      	push	{r7, lr}
 800030e:	b08a      	sub	sp, #40	; 0x28
 8000310:	af02      	add	r7, sp, #8
 8000312:	6078      	str	r0, [r7, #4]
	LCD_Clear(10, 10, 220, 220, BLACK);
 8000314:	2300      	movs	r3, #0
 8000316:	9300      	str	r3, [sp, #0]
 8000318:	23dc      	movs	r3, #220	; 0xdc
 800031a:	22dc      	movs	r2, #220	; 0xdc
 800031c:	210a      	movs	r1, #10
 800031e:	200a      	movs	r0, #10
 8000320:	f001 f885 	bl	800142e <LCD_Clear>
	for (int row=0; row<3; ++row) {
 8000324:	2300      	movs	r3, #0
 8000326:	61fb      	str	r3, [r7, #28]
 8000328:	e031      	b.n	800038e <printFace+0x82>
		for (int col=0; col<3; ++col) {
 800032a:	2300      	movs	r3, #0
 800032c:	61bb      	str	r3, [r7, #24]
 800032e:	e028      	b.n	8000382 <printFace+0x76>
			int num = row*3+col;
 8000330:	69fa      	ldr	r2, [r7, #28]
 8000332:	4613      	mov	r3, r2
 8000334:	005b      	lsls	r3, r3, #1
 8000336:	4413      	add	r3, r2
 8000338:	69ba      	ldr	r2, [r7, #24]
 800033a:	4413      	add	r3, r2
 800033c:	617b      	str	r3, [r7, #20]
			uint16_t RGB = convertColor2RGB(SquareOfOneFace[num]);
 800033e:	697b      	ldr	r3, [r7, #20]
 8000340:	687a      	ldr	r2, [r7, #4]
 8000342:	4413      	add	r3, r2
 8000344:	781b      	ldrb	r3, [r3, #0]
 8000346:	4618      	mov	r0, r3
 8000348:	f7ff ff8f 	bl	800026a <convertColor2RGB>
 800034c:	4603      	mov	r3, r0
 800034e:	827b      	strh	r3, [r7, #18]
			int x = (SQUARE_SIZE+10)*col+FIRST_ROW_COL;
 8000350:	69bb      	ldr	r3, [r7, #24]
 8000352:	2246      	movs	r2, #70	; 0x46
 8000354:	fb02 f303 	mul.w	r3, r2, r3
 8000358:	3314      	adds	r3, #20
 800035a:	60fb      	str	r3, [r7, #12]
			int y = (SQUARE_SIZE+10)*row+FIRST_ROW_COL;
 800035c:	69fb      	ldr	r3, [r7, #28]
 800035e:	2246      	movs	r2, #70	; 0x46
 8000360:	fb02 f303 	mul.w	r3, r2, r3
 8000364:	3314      	adds	r3, #20
 8000366:	60bb      	str	r3, [r7, #8]
			LCD_Clear(x, y, SQUARE_SIZE, SQUARE_SIZE, RGB);
 8000368:	68fb      	ldr	r3, [r7, #12]
 800036a:	b298      	uxth	r0, r3
 800036c:	68bb      	ldr	r3, [r7, #8]
 800036e:	b299      	uxth	r1, r3
 8000370:	8a7b      	ldrh	r3, [r7, #18]
 8000372:	9300      	str	r3, [sp, #0]
 8000374:	233c      	movs	r3, #60	; 0x3c
 8000376:	223c      	movs	r2, #60	; 0x3c
 8000378:	f001 f859 	bl	800142e <LCD_Clear>
		for (int col=0; col<3; ++col) {
 800037c:	69bb      	ldr	r3, [r7, #24]
 800037e:	3301      	adds	r3, #1
 8000380:	61bb      	str	r3, [r7, #24]
 8000382:	69bb      	ldr	r3, [r7, #24]
 8000384:	2b02      	cmp	r3, #2
 8000386:	ddd3      	ble.n	8000330 <printFace+0x24>
	for (int row=0; row<3; ++row) {
 8000388:	69fb      	ldr	r3, [r7, #28]
 800038a:	3301      	adds	r3, #1
 800038c:	61fb      	str	r3, [r7, #28]
 800038e:	69fb      	ldr	r3, [r7, #28]
 8000390:	2b02      	cmp	r3, #2
 8000392:	ddca      	ble.n	800032a <printFace+0x1e>
		}
	}
}
 8000394:	bf00      	nop
 8000396:	bf00      	nop
 8000398:	3720      	adds	r7, #32
 800039a:	46bd      	mov	sp, r7
 800039c:	bd80      	pop	{r7, pc}
	...

080003a0 <Ov7725_Init>:

/************************************************
 * Sensor_Init
 ************************************************/
ErrorStatus Ov7725_Init(void)
{
 80003a0:	b580      	push	{r7, lr}
 80003a2:	b082      	sub	sp, #8
 80003a4:	af00      	add	r7, sp, #0
	uint16_t i = 0;
 80003a6:	2300      	movs	r3, #0
 80003a8:	80fb      	strh	r3, [r7, #6]
	uint8_t Sensor_IDCode = 0;	
 80003aa:	2300      	movs	r3, #0
 80003ac:	717b      	strb	r3, [r7, #5]
	
	if( 0 == SCCB_WriteByte ( 0x12, 0x80 ) ) /*reset sensor */
 80003ae:	2180      	movs	r1, #128	; 0x80
 80003b0:	2012      	movs	r0, #18
 80003b2:	f000 fbe5 	bl	8000b80 <SCCB_WriteByte>
 80003b6:	4603      	mov	r3, r0
 80003b8:	2b00      	cmp	r3, #0
 80003ba:	d101      	bne.n	80003c0 <Ov7725_Init+0x20>
	{
		return ERROR ;
 80003bc:	2300      	movs	r3, #0
 80003be:	e030      	b.n	8000422 <Ov7725_Init+0x82>
	}	

	if( 0 == SCCB_ReadByte( &Sensor_IDCode, 1, 0x0b ) )	 /* read sensor ID*/
 80003c0:	1d7b      	adds	r3, r7, #5
 80003c2:	220b      	movs	r2, #11
 80003c4:	2101      	movs	r1, #1
 80003c6:	4618      	mov	r0, r3
 80003c8:	f000 fc09 	bl	8000bde <SCCB_ReadByte>
 80003cc:	4603      	mov	r3, r0
 80003ce:	2b00      	cmp	r3, #0
 80003d0:	d101      	bne.n	80003d6 <Ov7725_Init+0x36>
	{
		return ERROR;
 80003d2:	2300      	movs	r3, #0
 80003d4:	e025      	b.n	8000422 <Ov7725_Init+0x82>
	}
	//DEBUG("Sensor ID is 0x%x", Sensor_IDCode);	
	
	if(Sensor_IDCode == OV7725_ID)
 80003d6:	797b      	ldrb	r3, [r7, #5]
 80003d8:	2b21      	cmp	r3, #33	; 0x21
 80003da:	d11f      	bne.n	800041c <Ov7725_Init+0x7c>
	{
		for( i = 0 ; i < OV7725_REG_NUM ; i++ )
 80003dc:	2300      	movs	r3, #0
 80003de:	80fb      	strh	r3, [r7, #6]
 80003e0:	e015      	b.n	800040e <Ov7725_Init+0x6e>
		{
			if( 0 == SCCB_WriteByte(Sensor_Config[i].Address, Sensor_Config[i].Value) )
 80003e2:	88fb      	ldrh	r3, [r7, #6]
 80003e4:	4a11      	ldr	r2, [pc, #68]	; (800042c <Ov7725_Init+0x8c>)
 80003e6:	f812 3013 	ldrb.w	r3, [r2, r3, lsl #1]
 80003ea:	b29a      	uxth	r2, r3
 80003ec:	88fb      	ldrh	r3, [r7, #6]
 80003ee:	490f      	ldr	r1, [pc, #60]	; (800042c <Ov7725_Init+0x8c>)
 80003f0:	005b      	lsls	r3, r3, #1
 80003f2:	440b      	add	r3, r1
 80003f4:	785b      	ldrb	r3, [r3, #1]
 80003f6:	4619      	mov	r1, r3
 80003f8:	4610      	mov	r0, r2
 80003fa:	f000 fbc1 	bl	8000b80 <SCCB_WriteByte>
 80003fe:	4603      	mov	r3, r0
 8000400:	2b00      	cmp	r3, #0
 8000402:	d101      	bne.n	8000408 <Ov7725_Init+0x68>
			{                
				return ERROR;
 8000404:	2300      	movs	r3, #0
 8000406:	e00c      	b.n	8000422 <Ov7725_Init+0x82>
		for( i = 0 ; i < OV7725_REG_NUM ; i++ )
 8000408:	88fb      	ldrh	r3, [r7, #6]
 800040a:	3301      	adds	r3, #1
 800040c:	80fb      	strh	r3, [r7, #6]
 800040e:	4b08      	ldr	r3, [pc, #32]	; (8000430 <Ov7725_Init+0x90>)
 8000410:	781b      	ldrb	r3, [r3, #0]
 8000412:	b29b      	uxth	r3, r3
 8000414:	88fa      	ldrh	r2, [r7, #6]
 8000416:	429a      	cmp	r2, r3
 8000418:	d3e3      	bcc.n	80003e2 <Ov7725_Init+0x42>
 800041a:	e001      	b.n	8000420 <Ov7725_Init+0x80>
			}
		}
	}
	else
	{
		return ERROR;
 800041c:	2300      	movs	r3, #0
 800041e:	e000      	b.n	8000422 <Ov7725_Init+0x82>
	}
	
	return SUCCESS;
 8000420:	2301      	movs	r3, #1
}
 8000422:	4618      	mov	r0, r3
 8000424:	3708      	adds	r7, #8
 8000426:	46bd      	mov	sp, r7
 8000428:	bd80      	pop	{r7, pc}
 800042a:	bf00      	nop
 800042c:	20000000 	.word	0x20000000
 8000430:	2000009a 	.word	0x2000009a

08000434 <initArray>:
		}
	}
	HAL_Delay(1000);
}

void initArray(int* Array, int size) {
 8000434:	b480      	push	{r7}
 8000436:	b085      	sub	sp, #20
 8000438:	af00      	add	r7, sp, #0
 800043a:	6078      	str	r0, [r7, #4]
 800043c:	6039      	str	r1, [r7, #0]
	for (int i=0; i<size; ++i) {
 800043e:	2300      	movs	r3, #0
 8000440:	60fb      	str	r3, [r7, #12]
 8000442:	e008      	b.n	8000456 <initArray+0x22>
		Array[i] = 0;
 8000444:	68fb      	ldr	r3, [r7, #12]
 8000446:	009b      	lsls	r3, r3, #2
 8000448:	687a      	ldr	r2, [r7, #4]
 800044a:	4413      	add	r3, r2
 800044c:	2200      	movs	r2, #0
 800044e:	601a      	str	r2, [r3, #0]
	for (int i=0; i<size; ++i) {
 8000450:	68fb      	ldr	r3, [r7, #12]
 8000452:	3301      	adds	r3, #1
 8000454:	60fb      	str	r3, [r7, #12]
 8000456:	68fa      	ldr	r2, [r7, #12]
 8000458:	683b      	ldr	r3, [r7, #0]
 800045a:	429a      	cmp	r2, r3
 800045c:	dbf2      	blt.n	8000444 <initArray+0x10>
	}
}
 800045e:	bf00      	nop
 8000460:	bf00      	nop
 8000462:	3714      	adds	r7, #20
 8000464:	46bd      	mov	sp, r7
 8000466:	bc80      	pop	{r7}
 8000468:	4770      	bx	lr

0800046a <detect>:

int detect(uint16_t i, uint16_t j) {
 800046a:	b480      	push	{r7}
 800046c:	b083      	sub	sp, #12
 800046e:	af00      	add	r7, sp, #0
 8000470:	4603      	mov	r3, r0
 8000472:	460a      	mov	r2, r1
 8000474:	80fb      	strh	r3, [r7, #6]
 8000476:	4613      	mov	r3, r2
 8000478:	80bb      	strh	r3, [r7, #4]
	if ((abs(FACE_ONE_X - i)<=SAMPLE_SIZE/2) && (abs(FACE_ONE_Y - j)<=SAMPLE_SIZE/2)) {
 800047a:	88fb      	ldrh	r3, [r7, #6]
 800047c:	f1c3 037d 	rsb	r3, r3, #125	; 0x7d
 8000480:	f113 0f04 	cmn.w	r3, #4
 8000484:	db11      	blt.n	80004aa <detect+0x40>
 8000486:	88fb      	ldrh	r3, [r7, #6]
 8000488:	f1c3 037d 	rsb	r3, r3, #125	; 0x7d
 800048c:	2b04      	cmp	r3, #4
 800048e:	dc0c      	bgt.n	80004aa <detect+0x40>
 8000490:	88bb      	ldrh	r3, [r7, #4]
 8000492:	f1c3 035c 	rsb	r3, r3, #92	; 0x5c
 8000496:	f113 0f04 	cmn.w	r3, #4
 800049a:	db06      	blt.n	80004aa <detect+0x40>
 800049c:	88bb      	ldrh	r3, [r7, #4]
 800049e:	f1c3 035c 	rsb	r3, r3, #92	; 0x5c
 80004a2:	2b04      	cmp	r3, #4
 80004a4:	dc01      	bgt.n	80004aa <detect+0x40>
		return 0;
 80004a6:	2300      	movs	r3, #0
 80004a8:	e0c0      	b.n	800062c <detect+0x1c2>
	}
	if ((abs(FACE_TWO_X - i)<=SAMPLE_SIZE/2) && (abs(FACE_TWO_Y - j)<=SAMPLE_SIZE/2)) {
 80004aa:	88fb      	ldrh	r3, [r7, #6]
 80004ac:	f1c3 0363 	rsb	r3, r3, #99	; 0x63
 80004b0:	f113 0f04 	cmn.w	r3, #4
 80004b4:	db11      	blt.n	80004da <detect+0x70>
 80004b6:	88fb      	ldrh	r3, [r7, #6]
 80004b8:	f1c3 0363 	rsb	r3, r3, #99	; 0x63
 80004bc:	2b04      	cmp	r3, #4
 80004be:	dc0c      	bgt.n	80004da <detect+0x70>
 80004c0:	88bb      	ldrh	r3, [r7, #4]
 80004c2:	f1c3 0385 	rsb	r3, r3, #133	; 0x85
 80004c6:	f113 0f04 	cmn.w	r3, #4
 80004ca:	db06      	blt.n	80004da <detect+0x70>
 80004cc:	88bb      	ldrh	r3, [r7, #4]
 80004ce:	f1c3 0385 	rsb	r3, r3, #133	; 0x85
 80004d2:	2b04      	cmp	r3, #4
 80004d4:	dc01      	bgt.n	80004da <detect+0x70>
		return 1;
 80004d6:	2301      	movs	r3, #1
 80004d8:	e0a8      	b.n	800062c <detect+0x1c2>
	}
	if ((abs(FACE_THREE_X - i)<=SAMPLE_SIZE/2) && (abs(FACE_THREE_Y - j)<=SAMPLE_SIZE/2)) {
 80004da:	88fb      	ldrh	r3, [r7, #6]
 80004dc:	f1c3 033a 	rsb	r3, r3, #58	; 0x3a
 80004e0:	f113 0f04 	cmn.w	r3, #4
 80004e4:	db11      	blt.n	800050a <detect+0xa0>
 80004e6:	88fb      	ldrh	r3, [r7, #6]
 80004e8:	f1c3 033a 	rsb	r3, r3, #58	; 0x3a
 80004ec:	2b04      	cmp	r3, #4
 80004ee:	dc0c      	bgt.n	800050a <detect+0xa0>
 80004f0:	88bb      	ldrh	r3, [r7, #4]
 80004f2:	f1c3 039f 	rsb	r3, r3, #159	; 0x9f
 80004f6:	f113 0f04 	cmn.w	r3, #4
 80004fa:	db06      	blt.n	800050a <detect+0xa0>
 80004fc:	88bb      	ldrh	r3, [r7, #4]
 80004fe:	f1c3 039f 	rsb	r3, r3, #159	; 0x9f
 8000502:	2b04      	cmp	r3, #4
 8000504:	dc01      	bgt.n	800050a <detect+0xa0>
		return 2;
 8000506:	2302      	movs	r3, #2
 8000508:	e090      	b.n	800062c <detect+0x1c2>
	}
	if ((abs(FACE_FOUR_X - i)<=SAMPLE_SIZE/2) && (abs(FACE_FOUR_Y - j)<=SAMPLE_SIZE/2)) {
 800050a:	88fb      	ldrh	r3, [r7, #6]
 800050c:	f1c3 0397 	rsb	r3, r3, #151	; 0x97
 8000510:	f113 0f04 	cmn.w	r3, #4
 8000514:	db11      	blt.n	800053a <detect+0xd0>
 8000516:	88fb      	ldrh	r3, [r7, #6]
 8000518:	f1c3 0397 	rsb	r3, r3, #151	; 0x97
 800051c:	2b04      	cmp	r3, #4
 800051e:	dc0c      	bgt.n	800053a <detect+0xd0>
 8000520:	88bb      	ldrh	r3, [r7, #4]
 8000522:	f1c3 0385 	rsb	r3, r3, #133	; 0x85
 8000526:	f113 0f04 	cmn.w	r3, #4
 800052a:	db06      	blt.n	800053a <detect+0xd0>
 800052c:	88bb      	ldrh	r3, [r7, #4]
 800052e:	f1c3 0385 	rsb	r3, r3, #133	; 0x85
 8000532:	2b04      	cmp	r3, #4
 8000534:	dc01      	bgt.n	800053a <detect+0xd0>
		return 3;
 8000536:	2303      	movs	r3, #3
 8000538:	e078      	b.n	800062c <detect+0x1c2>
	}
	if ((abs(FACE_FIVE_X - i)<=SAMPLE_SIZE/2) && (abs(FACE_FIVE_Y - j)<=SAMPLE_SIZE/2)) {
 800053a:	88fb      	ldrh	r3, [r7, #6]
 800053c:	f1c3 037d 	rsb	r3, r3, #125	; 0x7d
 8000540:	f113 0f04 	cmn.w	r3, #4
 8000544:	db11      	blt.n	800056a <detect+0x100>
 8000546:	88fb      	ldrh	r3, [r7, #6]
 8000548:	f1c3 037d 	rsb	r3, r3, #125	; 0x7d
 800054c:	2b04      	cmp	r3, #4
 800054e:	dc0c      	bgt.n	800056a <detect+0x100>
 8000550:	88bb      	ldrh	r3, [r7, #4]
 8000552:	f1c3 039f 	rsb	r3, r3, #159	; 0x9f
 8000556:	f113 0f04 	cmn.w	r3, #4
 800055a:	db06      	blt.n	800056a <detect+0x100>
 800055c:	88bb      	ldrh	r3, [r7, #4]
 800055e:	f1c3 039f 	rsb	r3, r3, #159	; 0x9f
 8000562:	2b04      	cmp	r3, #4
 8000564:	dc01      	bgt.n	800056a <detect+0x100>
		return 4;
 8000566:	2304      	movs	r3, #4
 8000568:	e060      	b.n	800062c <detect+0x1c2>
	}
	if ((abs(FACE_SIX_X - i)<=SAMPLE_SIZE/2) && (abs(FACE_SIX_Y - j)<=SAMPLE_SIZE/2)) {
 800056a:	88fb      	ldrh	r3, [r7, #6]
 800056c:	f1c3 0363 	rsb	r3, r3, #99	; 0x63
 8000570:	f113 0f04 	cmn.w	r3, #4
 8000574:	db11      	blt.n	800059a <detect+0x130>
 8000576:	88fb      	ldrh	r3, [r7, #6]
 8000578:	f1c3 0363 	rsb	r3, r3, #99	; 0x63
 800057c:	2b04      	cmp	r3, #4
 800057e:	dc0c      	bgt.n	800059a <detect+0x130>
 8000580:	88bb      	ldrh	r3, [r7, #4]
 8000582:	f1c3 03b9 	rsb	r3, r3, #185	; 0xb9
 8000586:	f113 0f04 	cmn.w	r3, #4
 800058a:	db06      	blt.n	800059a <detect+0x130>
 800058c:	88bb      	ldrh	r3, [r7, #4]
 800058e:	f1c3 03b9 	rsb	r3, r3, #185	; 0xb9
 8000592:	2b04      	cmp	r3, #4
 8000594:	dc01      	bgt.n	800059a <detect+0x130>
		return 5;
 8000596:	2305      	movs	r3, #5
 8000598:	e048      	b.n	800062c <detect+0x1c2>
	}
	if ((abs(FACE_SEVEN_X - i)<=SAMPLE_SIZE/2) && (abs(FACE_SEVEN_Y - j)<=SAMPLE_SIZE/2)) {
 800059a:	88fb      	ldrh	r3, [r7, #6]
 800059c:	f1c3 03c0 	rsb	r3, r3, #192	; 0xc0
 80005a0:	f113 0f04 	cmn.w	r3, #4
 80005a4:	db11      	blt.n	80005ca <detect+0x160>
 80005a6:	88fb      	ldrh	r3, [r7, #6]
 80005a8:	f1c3 03c0 	rsb	r3, r3, #192	; 0xc0
 80005ac:	2b04      	cmp	r3, #4
 80005ae:	dc0c      	bgt.n	80005ca <detect+0x160>
 80005b0:	88bb      	ldrh	r3, [r7, #4]
 80005b2:	f1c3 039f 	rsb	r3, r3, #159	; 0x9f
 80005b6:	f113 0f04 	cmn.w	r3, #4
 80005ba:	db06      	blt.n	80005ca <detect+0x160>
 80005bc:	88bb      	ldrh	r3, [r7, #4]
 80005be:	f1c3 039f 	rsb	r3, r3, #159	; 0x9f
 80005c2:	2b04      	cmp	r3, #4
 80005c4:	dc01      	bgt.n	80005ca <detect+0x160>
		return 6;
 80005c6:	2306      	movs	r3, #6
 80005c8:	e030      	b.n	800062c <detect+0x1c2>
	}
	if ((abs(FACE_EIGHT_X - i)<=SAMPLE_SIZE/2) && (abs(FACE_EIGHT_Y - j)<=SAMPLE_SIZE/2)) {
 80005ca:	88fb      	ldrh	r3, [r7, #6]
 80005cc:	f1c3 0397 	rsb	r3, r3, #151	; 0x97
 80005d0:	f113 0f04 	cmn.w	r3, #4
 80005d4:	db11      	blt.n	80005fa <detect+0x190>
 80005d6:	88fb      	ldrh	r3, [r7, #6]
 80005d8:	f1c3 0397 	rsb	r3, r3, #151	; 0x97
 80005dc:	2b04      	cmp	r3, #4
 80005de:	dc0c      	bgt.n	80005fa <detect+0x190>
 80005e0:	88bb      	ldrh	r3, [r7, #4]
 80005e2:	f1c3 03b9 	rsb	r3, r3, #185	; 0xb9
 80005e6:	f113 0f04 	cmn.w	r3, #4
 80005ea:	db06      	blt.n	80005fa <detect+0x190>
 80005ec:	88bb      	ldrh	r3, [r7, #4]
 80005ee:	f1c3 03b9 	rsb	r3, r3, #185	; 0xb9
 80005f2:	2b04      	cmp	r3, #4
 80005f4:	dc01      	bgt.n	80005fa <detect+0x190>
		return 7;
 80005f6:	2307      	movs	r3, #7
 80005f8:	e018      	b.n	800062c <detect+0x1c2>
	}
	if ((abs(FACE_NINE_X - i)<=SAMPLE_SIZE/2) && (abs(FACE_NINE_Y - j)<=SAMPLE_SIZE/2)) {
 80005fa:	88fb      	ldrh	r3, [r7, #6]
 80005fc:	f1c3 037d 	rsb	r3, r3, #125	; 0x7d
 8000600:	f113 0f04 	cmn.w	r3, #4
 8000604:	db11      	blt.n	800062a <detect+0x1c0>
 8000606:	88fb      	ldrh	r3, [r7, #6]
 8000608:	f1c3 037d 	rsb	r3, r3, #125	; 0x7d
 800060c:	2b04      	cmp	r3, #4
 800060e:	dc0c      	bgt.n	800062a <detect+0x1c0>
 8000610:	88bb      	ldrh	r3, [r7, #4]
 8000612:	f1c3 03d3 	rsb	r3, r3, #211	; 0xd3
 8000616:	f113 0f04 	cmn.w	r3, #4
 800061a:	db06      	blt.n	800062a <detect+0x1c0>
 800061c:	88bb      	ldrh	r3, [r7, #4]
 800061e:	f1c3 03d3 	rsb	r3, r3, #211	; 0xd3
 8000622:	2b04      	cmp	r3, #4
 8000624:	dc01      	bgt.n	800062a <detect+0x1c0>
		return 8;
 8000626:	2308      	movs	r3, #8
 8000628:	e000      	b.n	800062c <detect+0x1c2>
	}
	return 9;
 800062a:	2309      	movs	r3, #9
}
 800062c:	4618      	mov	r0, r3
 800062e:	370c      	adds	r7, #12
 8000630:	46bd      	mov	sp, r7
 8000632:	bc80      	pop	{r7}
 8000634:	4770      	bx	lr

08000636 <int2RGB>:

void int2RGB(uint16_t RGB, int* R, int* G, int* B) {
 8000636:	b480      	push	{r7}
 8000638:	b085      	sub	sp, #20
 800063a:	af00      	add	r7, sp, #0
 800063c:	60b9      	str	r1, [r7, #8]
 800063e:	607a      	str	r2, [r7, #4]
 8000640:	603b      	str	r3, [r7, #0]
 8000642:	4603      	mov	r3, r0
 8000644:	81fb      	strh	r3, [r7, #14]
	*R = (RGB & 31 << 11) >> 11;
 8000646:	89fb      	ldrh	r3, [r7, #14]
 8000648:	0adb      	lsrs	r3, r3, #11
 800064a:	b29b      	uxth	r3, r3
 800064c:	461a      	mov	r2, r3
 800064e:	68bb      	ldr	r3, [r7, #8]
 8000650:	601a      	str	r2, [r3, #0]
	*G = (RGB & 63 << 5) >> 5;
 8000652:	89fb      	ldrh	r3, [r7, #14]
 8000654:	115b      	asrs	r3, r3, #5
 8000656:	f003 023f 	and.w	r2, r3, #63	; 0x3f
 800065a:	687b      	ldr	r3, [r7, #4]
 800065c:	601a      	str	r2, [r3, #0]
	*B = RGB & 31;
 800065e:	89fb      	ldrh	r3, [r7, #14]
 8000660:	f003 021f 	and.w	r2, r3, #31
 8000664:	683b      	ldr	r3, [r7, #0]
 8000666:	601a      	str	r2, [r3, #0]
}
 8000668:	bf00      	nop
 800066a:	3714      	adds	r7, #20
 800066c:	46bd      	mov	sp, r7
 800066e:	bc80      	pop	{r7}
 8000670:	4770      	bx	lr

08000672 <sumRGB>:
			printRGB(R[num], G[num], B[num], row, col);
		}
	}
}

void sumRGB(int Camera_Data, int* R_Sum, int* G_Sum, int* B_Sum) {
 8000672:	b580      	push	{r7, lr}
 8000674:	b088      	sub	sp, #32
 8000676:	af00      	add	r7, sp, #0
 8000678:	60f8      	str	r0, [r7, #12]
 800067a:	60b9      	str	r1, [r7, #8]
 800067c:	607a      	str	r2, [r7, #4]
 800067e:	603b      	str	r3, [r7, #0]
	int R, G, B;
	int2RGB(Camera_Data, &R, &G, &B);
 8000680:	68fb      	ldr	r3, [r7, #12]
 8000682:	b298      	uxth	r0, r3
 8000684:	f107 0314 	add.w	r3, r7, #20
 8000688:	f107 0218 	add.w	r2, r7, #24
 800068c:	f107 011c 	add.w	r1, r7, #28
 8000690:	f7ff ffd1 	bl	8000636 <int2RGB>
	*R_Sum += R;
 8000694:	68bb      	ldr	r3, [r7, #8]
 8000696:	681a      	ldr	r2, [r3, #0]
 8000698:	69fb      	ldr	r3, [r7, #28]
 800069a:	441a      	add	r2, r3
 800069c:	68bb      	ldr	r3, [r7, #8]
 800069e:	601a      	str	r2, [r3, #0]
	*G_Sum += G;
 80006a0:	687b      	ldr	r3, [r7, #4]
 80006a2:	681a      	ldr	r2, [r3, #0]
 80006a4:	69bb      	ldr	r3, [r7, #24]
 80006a6:	441a      	add	r2, r3
 80006a8:	687b      	ldr	r3, [r7, #4]
 80006aa:	601a      	str	r2, [r3, #0]
	*B_Sum += B;
 80006ac:	683b      	ldr	r3, [r7, #0]
 80006ae:	681a      	ldr	r2, [r3, #0]
 80006b0:	697b      	ldr	r3, [r7, #20]
 80006b2:	441a      	add	r2, r3
 80006b4:	683b      	ldr	r3, [r7, #0]
 80006b6:	601a      	str	r2, [r3, #0]
}
 80006b8:	bf00      	nop
 80006ba:	3720      	adds	r7, #32
 80006bc:	46bd      	mov	sp, r7
 80006be:	bd80      	pop	{r7, pc}

080006c0 <averageRGB>:

void averageRGB(int sum, int size, int* average) {
 80006c0:	b480      	push	{r7}
 80006c2:	b085      	sub	sp, #20
 80006c4:	af00      	add	r7, sp, #0
 80006c6:	60f8      	str	r0, [r7, #12]
 80006c8:	60b9      	str	r1, [r7, #8]
 80006ca:	607a      	str	r2, [r7, #4]
	*average = sum/size;
 80006cc:	68fa      	ldr	r2, [r7, #12]
 80006ce:	68bb      	ldr	r3, [r7, #8]
 80006d0:	fb92 f2f3 	sdiv	r2, r2, r3
 80006d4:	687b      	ldr	r3, [r7, #4]
 80006d6:	601a      	str	r2, [r3, #0]
}
 80006d8:	bf00      	nop
 80006da:	3714      	adds	r7, #20
 80006dc:	46bd      	mov	sp, r7
 80006de:	bc80      	pop	{r7}
 80006e0:	4770      	bx	lr

080006e2 <detect_sum>:
// detect which square and sum the RGB value
void detect_sum(uint16_t i, uint16_t j, uint16_t Camera_Data, int* R, int* G, int* B) {
 80006e2:	b590      	push	{r4, r7, lr}
 80006e4:	b087      	sub	sp, #28
 80006e6:	af00      	add	r7, sp, #0
 80006e8:	607b      	str	r3, [r7, #4]
 80006ea:	4603      	mov	r3, r0
 80006ec:	81fb      	strh	r3, [r7, #14]
 80006ee:	460b      	mov	r3, r1
 80006f0:	81bb      	strh	r3, [r7, #12]
 80006f2:	4613      	mov	r3, r2
 80006f4:	817b      	strh	r3, [r7, #10]
	int num = detect(i, j);
 80006f6:	89ba      	ldrh	r2, [r7, #12]
 80006f8:	89fb      	ldrh	r3, [r7, #14]
 80006fa:	4611      	mov	r1, r2
 80006fc:	4618      	mov	r0, r3
 80006fe:	f7ff feb4 	bl	800046a <detect>
 8000702:	6178      	str	r0, [r7, #20]
	if (num != 9) {
 8000704:	697b      	ldr	r3, [r7, #20]
 8000706:	2b09      	cmp	r3, #9
 8000708:	d00f      	beq.n	800072a <detect_sum+0x48>
		sumRGB(Camera_Data, &(R[num]), &(G[num]), &(B[num]));
 800070a:	8978      	ldrh	r0, [r7, #10]
 800070c:	697b      	ldr	r3, [r7, #20]
 800070e:	009b      	lsls	r3, r3, #2
 8000710:	687a      	ldr	r2, [r7, #4]
 8000712:	18d1      	adds	r1, r2, r3
 8000714:	697b      	ldr	r3, [r7, #20]
 8000716:	009b      	lsls	r3, r3, #2
 8000718:	6aba      	ldr	r2, [r7, #40]	; 0x28
 800071a:	18d4      	adds	r4, r2, r3
 800071c:	697b      	ldr	r3, [r7, #20]
 800071e:	009b      	lsls	r3, r3, #2
 8000720:	6afa      	ldr	r2, [r7, #44]	; 0x2c
 8000722:	4413      	add	r3, r2
 8000724:	4622      	mov	r2, r4
 8000726:	f7ff ffa4 	bl	8000672 <sumRGB>
	}
}
 800072a:	bf00      	nop
 800072c:	371c      	adds	r7, #28
 800072e:	46bd      	mov	sp, r7
 8000730:	bd90      	pop	{r4, r7, pc}

08000732 <writeColorIntoArray>:
// write the color into the return array
void writeColorIntoArray(int* R, int* G, int* B, char* SquareOfOneFace) {
 8000732:	b480      	push	{r7}
 8000734:	b087      	sub	sp, #28
 8000736:	af00      	add	r7, sp, #0
 8000738:	60f8      	str	r0, [r7, #12]
 800073a:	60b9      	str	r1, [r7, #8]
 800073c:	607a      	str	r2, [r7, #4]
 800073e:	603b      	str	r3, [r7, #0]
	// content the same with printColor()
	for (int num=0; num<9; num++) {
 8000740:	2300      	movs	r3, #0
 8000742:	617b      	str	r3, [r7, #20]
 8000744:	e048      	b.n	80007d8 <writeColorIntoArray+0xa6>
//						SquareOfOneFace[num] = 'O';
//					}
//				}
//			}
//		}
		if (B[num] <= 10) {
 8000746:	697b      	ldr	r3, [r7, #20]
 8000748:	009b      	lsls	r3, r3, #2
 800074a:	687a      	ldr	r2, [r7, #4]
 800074c:	4413      	add	r3, r2
 800074e:	681b      	ldr	r3, [r3, #0]
 8000750:	2b0a      	cmp	r3, #10
 8000752:	dc1f      	bgt.n	8000794 <writeColorIntoArray+0x62>
			if (R[num] < 5){
 8000754:	697b      	ldr	r3, [r7, #20]
 8000756:	009b      	lsls	r3, r3, #2
 8000758:	68fa      	ldr	r2, [r7, #12]
 800075a:	4413      	add	r3, r2
 800075c:	681b      	ldr	r3, [r3, #0]
 800075e:	2b04      	cmp	r3, #4
 8000760:	dc05      	bgt.n	800076e <writeColorIntoArray+0x3c>
				SquareOfOneFace[num] = 'G';
 8000762:	697b      	ldr	r3, [r7, #20]
 8000764:	683a      	ldr	r2, [r7, #0]
 8000766:	4413      	add	r3, r2
 8000768:	2247      	movs	r2, #71	; 0x47
 800076a:	701a      	strb	r2, [r3, #0]
 800076c:	e031      	b.n	80007d2 <writeColorIntoArray+0xa0>
			} else {
				if (G[num] < 10) {
 800076e:	697b      	ldr	r3, [r7, #20]
 8000770:	009b      	lsls	r3, r3, #2
 8000772:	68ba      	ldr	r2, [r7, #8]
 8000774:	4413      	add	r3, r2
 8000776:	681b      	ldr	r3, [r3, #0]
 8000778:	2b09      	cmp	r3, #9
 800077a:	dc05      	bgt.n	8000788 <writeColorIntoArray+0x56>
					SquareOfOneFace[num] = 'R';
 800077c:	697b      	ldr	r3, [r7, #20]
 800077e:	683a      	ldr	r2, [r7, #0]
 8000780:	4413      	add	r3, r2
 8000782:	2252      	movs	r2, #82	; 0x52
 8000784:	701a      	strb	r2, [r3, #0]
 8000786:	e024      	b.n	80007d2 <writeColorIntoArray+0xa0>
				} else {
					SquareOfOneFace[num] = 'O';
 8000788:	697b      	ldr	r3, [r7, #20]
 800078a:	683a      	ldr	r2, [r7, #0]
 800078c:	4413      	add	r3, r2
 800078e:	224f      	movs	r2, #79	; 0x4f
 8000790:	701a      	strb	r2, [r3, #0]
 8000792:	e01e      	b.n	80007d2 <writeColorIntoArray+0xa0>
				}
			}
		} else {
			if (R[num] < 5) {
 8000794:	697b      	ldr	r3, [r7, #20]
 8000796:	009b      	lsls	r3, r3, #2
 8000798:	68fa      	ldr	r2, [r7, #12]
 800079a:	4413      	add	r3, r2
 800079c:	681b      	ldr	r3, [r3, #0]
 800079e:	2b04      	cmp	r3, #4
 80007a0:	dc05      	bgt.n	80007ae <writeColorIntoArray+0x7c>
				SquareOfOneFace[num] = 'B';
 80007a2:	697b      	ldr	r3, [r7, #20]
 80007a4:	683a      	ldr	r2, [r7, #0]
 80007a6:	4413      	add	r3, r2
 80007a8:	2242      	movs	r2, #66	; 0x42
 80007aa:	701a      	strb	r2, [r3, #0]
 80007ac:	e011      	b.n	80007d2 <writeColorIntoArray+0xa0>
			} else {
				if (B[num] > 20) {
 80007ae:	697b      	ldr	r3, [r7, #20]
 80007b0:	009b      	lsls	r3, r3, #2
 80007b2:	687a      	ldr	r2, [r7, #4]
 80007b4:	4413      	add	r3, r2
 80007b6:	681b      	ldr	r3, [r3, #0]
 80007b8:	2b14      	cmp	r3, #20
 80007ba:	dd05      	ble.n	80007c8 <writeColorIntoArray+0x96>
					SquareOfOneFace[num] = 'W';
 80007bc:	697b      	ldr	r3, [r7, #20]
 80007be:	683a      	ldr	r2, [r7, #0]
 80007c0:	4413      	add	r3, r2
 80007c2:	2257      	movs	r2, #87	; 0x57
 80007c4:	701a      	strb	r2, [r3, #0]
 80007c6:	e004      	b.n	80007d2 <writeColorIntoArray+0xa0>
				} else {
					SquareOfOneFace[num] = 'Y';
 80007c8:	697b      	ldr	r3, [r7, #20]
 80007ca:	683a      	ldr	r2, [r7, #0]
 80007cc:	4413      	add	r3, r2
 80007ce:	2259      	movs	r2, #89	; 0x59
 80007d0:	701a      	strb	r2, [r3, #0]
	for (int num=0; num<9; num++) {
 80007d2:	697b      	ldr	r3, [r7, #20]
 80007d4:	3301      	adds	r3, #1
 80007d6:	617b      	str	r3, [r7, #20]
 80007d8:	697b      	ldr	r3, [r7, #20]
 80007da:	2b08      	cmp	r3, #8
 80007dc:	ddb3      	ble.n	8000746 <writeColorIntoArray+0x14>
				}
			}
		}
	}
}
 80007de:	bf00      	nop
 80007e0:	bf00      	nop
 80007e2:	371c      	adds	r7, #28
 80007e4:	46bd      	mov	sp, r7
 80007e6:	bc80      	pop	{r7}
 80007e8:	4770      	bx	lr
	...

080007ec <ReadSquare>:

// main system will make use of this function to scan one face
void ReadSquare(char* SquareOfOneFace) {
 80007ec:	b590      	push	{r4, r7, lr}
 80007ee:	b0a3      	sub	sp, #140	; 0x8c
 80007f0:	af02      	add	r7, sp, #8
 80007f2:	6078      	str	r0, [r7, #4]
	uint16_t i, j;
	uint16_t Camera_Data;
	int R[9];
	int G[9];
	int B[9];
	initArray(R, 9);
 80007f4:	f107 0354 	add.w	r3, r7, #84	; 0x54
 80007f8:	2109      	movs	r1, #9
 80007fa:	4618      	mov	r0, r3
 80007fc:	f7ff fe1a 	bl	8000434 <initArray>
	initArray(G, 9);
 8000800:	f107 0330 	add.w	r3, r7, #48	; 0x30
 8000804:	2109      	movs	r1, #9
 8000806:	4618      	mov	r0, r3
 8000808:	f7ff fe14 	bl	8000434 <initArray>
	initArray(B, 9);
 800080c:	f107 030c 	add.w	r3, r7, #12
 8000810:	2109      	movs	r1, #9
 8000812:	4618      	mov	r0, r3
 8000814:	f7ff fe0e 	bl	8000434 <initArray>

	// LCD_Cam_Gram();

	for(i = 0; i < 240; i++)
 8000818:	2300      	movs	r3, #0
 800081a:	f8a7 307e 	strh.w	r3, [r7, #126]	; 0x7e
 800081e:	e043      	b.n	80008a8 <ReadSquare+0xbc>
	{
		for(j = 0; j < 320; j++)
 8000820:	2300      	movs	r3, #0
 8000822:	f8a7 307c 	strh.w	r3, [r7, #124]	; 0x7c
 8000826:	e035      	b.n	8000894 <ReadSquare+0xa8>
		{
			READ_FIFO_PIXEL(Camera_Data);
 8000828:	2300      	movs	r3, #0
 800082a:	f8a7 307a 	strh.w	r3, [r7, #122]	; 0x7a
 800082e:	4b47      	ldr	r3, [pc, #284]	; (800094c <ReadSquare+0x160>)
 8000830:	2220      	movs	r2, #32
 8000832:	615a      	str	r2, [r3, #20]
 8000834:	4b46      	ldr	r3, [pc, #280]	; (8000950 <ReadSquare+0x164>)
 8000836:	689b      	ldr	r3, [r3, #8]
 8000838:	b29b      	uxth	r3, r3
 800083a:	f023 03ff 	bic.w	r3, r3, #255	; 0xff
 800083e:	f8a7 307a 	strh.w	r3, [r7, #122]	; 0x7a
 8000842:	4b42      	ldr	r3, [pc, #264]	; (800094c <ReadSquare+0x160>)
 8000844:	2220      	movs	r2, #32
 8000846:	611a      	str	r2, [r3, #16]
 8000848:	4b40      	ldr	r3, [pc, #256]	; (800094c <ReadSquare+0x160>)
 800084a:	2220      	movs	r2, #32
 800084c:	615a      	str	r2, [r3, #20]
 800084e:	4b40      	ldr	r3, [pc, #256]	; (8000950 <ReadSquare+0x164>)
 8000850:	689b      	ldr	r3, [r3, #8]
 8000852:	0a1b      	lsrs	r3, r3, #8
 8000854:	b2db      	uxtb	r3, r3
 8000856:	b29a      	uxth	r2, r3
 8000858:	f8b7 307a 	ldrh.w	r3, [r7, #122]	; 0x7a
 800085c:	4313      	orrs	r3, r2
 800085e:	f8a7 307a 	strh.w	r3, [r7, #122]	; 0x7a
 8000862:	4b3a      	ldr	r3, [pc, #232]	; (800094c <ReadSquare+0x160>)
 8000864:	2220      	movs	r2, #32
 8000866:	611a      	str	r2, [r3, #16]
			detect_sum(i, j, Camera_Data, R, G, B);
 8000868:	f107 0454 	add.w	r4, r7, #84	; 0x54
 800086c:	f8b7 207a 	ldrh.w	r2, [r7, #122]	; 0x7a
 8000870:	f8b7 107c 	ldrh.w	r1, [r7, #124]	; 0x7c
 8000874:	f8b7 007e 	ldrh.w	r0, [r7, #126]	; 0x7e
 8000878:	f107 030c 	add.w	r3, r7, #12
 800087c:	9301      	str	r3, [sp, #4]
 800087e:	f107 0330 	add.w	r3, r7, #48	; 0x30
 8000882:	9300      	str	r3, [sp, #0]
 8000884:	4623      	mov	r3, r4
 8000886:	f7ff ff2c 	bl	80006e2 <detect_sum>
		for(j = 0; j < 320; j++)
 800088a:	f8b7 307c 	ldrh.w	r3, [r7, #124]	; 0x7c
 800088e:	3301      	adds	r3, #1
 8000890:	f8a7 307c 	strh.w	r3, [r7, #124]	; 0x7c
 8000894:	f8b7 307c 	ldrh.w	r3, [r7, #124]	; 0x7c
 8000898:	f5b3 7fa0 	cmp.w	r3, #320	; 0x140
 800089c:	d3c4      	bcc.n	8000828 <ReadSquare+0x3c>
	for(i = 0; i < 240; i++)
 800089e:	f8b7 307e 	ldrh.w	r3, [r7, #126]	; 0x7e
 80008a2:	3301      	adds	r3, #1
 80008a4:	f8a7 307e 	strh.w	r3, [r7, #126]	; 0x7e
 80008a8:	f8b7 307e 	ldrh.w	r3, [r7, #126]	; 0x7e
 80008ac:	2bef      	cmp	r3, #239	; 0xef
 80008ae:	d9b7      	bls.n	8000820 <ReadSquare+0x34>
		}
	}
	for (i=0; i<9; ++i) {
 80008b0:	2300      	movs	r3, #0
 80008b2:	f8a7 307e 	strh.w	r3, [r7, #126]	; 0x7e
 80008b6:	e037      	b.n	8000928 <ReadSquare+0x13c>
		averageRGB(R[i], SAMPLE_SIZE*SAMPLE_SIZE, &(R[i]));
 80008b8:	f8b7 307e 	ldrh.w	r3, [r7, #126]	; 0x7e
 80008bc:	009b      	lsls	r3, r3, #2
 80008be:	3380      	adds	r3, #128	; 0x80
 80008c0:	443b      	add	r3, r7
 80008c2:	f853 0c2c 	ldr.w	r0, [r3, #-44]
 80008c6:	f8b7 307e 	ldrh.w	r3, [r7, #126]	; 0x7e
 80008ca:	f107 0254 	add.w	r2, r7, #84	; 0x54
 80008ce:	009b      	lsls	r3, r3, #2
 80008d0:	4413      	add	r3, r2
 80008d2:	461a      	mov	r2, r3
 80008d4:	2151      	movs	r1, #81	; 0x51
 80008d6:	f7ff fef3 	bl	80006c0 <averageRGB>
		averageRGB(G[i], SAMPLE_SIZE*SAMPLE_SIZE, &(G[i]));
 80008da:	f8b7 307e 	ldrh.w	r3, [r7, #126]	; 0x7e
 80008de:	009b      	lsls	r3, r3, #2
 80008e0:	3380      	adds	r3, #128	; 0x80
 80008e2:	443b      	add	r3, r7
 80008e4:	f853 0c50 	ldr.w	r0, [r3, #-80]
 80008e8:	f8b7 307e 	ldrh.w	r3, [r7, #126]	; 0x7e
 80008ec:	f107 0230 	add.w	r2, r7, #48	; 0x30
 80008f0:	009b      	lsls	r3, r3, #2
 80008f2:	4413      	add	r3, r2
 80008f4:	461a      	mov	r2, r3
 80008f6:	2151      	movs	r1, #81	; 0x51
 80008f8:	f7ff fee2 	bl	80006c0 <averageRGB>
		averageRGB(B[i], SAMPLE_SIZE*SAMPLE_SIZE, &(B[i]));
 80008fc:	f8b7 307e 	ldrh.w	r3, [r7, #126]	; 0x7e
 8000900:	009b      	lsls	r3, r3, #2
 8000902:	3380      	adds	r3, #128	; 0x80
 8000904:	443b      	add	r3, r7
 8000906:	f853 0c74 	ldr.w	r0, [r3, #-116]
 800090a:	f8b7 307e 	ldrh.w	r3, [r7, #126]	; 0x7e
 800090e:	f107 020c 	add.w	r2, r7, #12
 8000912:	009b      	lsls	r3, r3, #2
 8000914:	4413      	add	r3, r2
 8000916:	461a      	mov	r2, r3
 8000918:	2151      	movs	r1, #81	; 0x51
 800091a:	f7ff fed1 	bl	80006c0 <averageRGB>
	for (i=0; i<9; ++i) {
 800091e:	f8b7 307e 	ldrh.w	r3, [r7, #126]	; 0x7e
 8000922:	3301      	adds	r3, #1
 8000924:	f8a7 307e 	strh.w	r3, [r7, #126]	; 0x7e
 8000928:	f8b7 307e 	ldrh.w	r3, [r7, #126]	; 0x7e
 800092c:	2b08      	cmp	r3, #8
 800092e:	d9c3      	bls.n	80008b8 <ReadSquare+0xcc>
	}
	// printColorRGB(R, G, B);
	writeColorIntoArray(R, G, B, SquareOfOneFace);
 8000930:	f107 020c 	add.w	r2, r7, #12
 8000934:	f107 0130 	add.w	r1, r7, #48	; 0x30
 8000938:	f107 0054 	add.w	r0, r7, #84	; 0x54
 800093c:	687b      	ldr	r3, [r7, #4]
 800093e:	f7ff fef8 	bl	8000732 <writeColorIntoArray>
	// printArray(SquareOfOneFace);
	// HAL_GPIO_WritePin(GPIOB, GPIO_PIN_5, GPIO_PIN_RESET);
	// HAL_GPIO_WritePin(GPIOB, GPIO_PIN_0, GPIO_PIN_RESET);
	// HAL_Delay(1000);
}
 8000942:	bf00      	nop
 8000944:	3784      	adds	r7, #132	; 0x84
 8000946:	46bd      	mov	sp, r7
 8000948:	bd90      	pop	{r4, r7, pc}
 800094a:	bf00      	nop
 800094c:	40011000 	.word	0x40011000
 8000950:	40010c00 	.word	0x40010c00

08000954 <SCCB_delay>:

#define DEV_ADR  ADDR_OV7725 			 


static void SCCB_delay(void)
{	
 8000954:	b480      	push	{r7}
 8000956:	b083      	sub	sp, #12
 8000958:	af00      	add	r7, sp, #0
   uint16_t i = 400; 
 800095a:	f44f 73c8 	mov.w	r3, #400	; 0x190
 800095e:	80fb      	strh	r3, [r7, #6]
   while(i) 
 8000960:	e002      	b.n	8000968 <SCCB_delay+0x14>
   { 
     i--; 
 8000962:	88fb      	ldrh	r3, [r7, #6]
 8000964:	3b01      	subs	r3, #1
 8000966:	80fb      	strh	r3, [r7, #6]
   while(i) 
 8000968:	88fb      	ldrh	r3, [r7, #6]
 800096a:	2b00      	cmp	r3, #0
 800096c:	d1f9      	bne.n	8000962 <SCCB_delay+0xe>
   } 
}
 800096e:	bf00      	nop
 8000970:	bf00      	nop
 8000972:	370c      	adds	r7, #12
 8000974:	46bd      	mov	sp, r7
 8000976:	bc80      	pop	{r7}
 8000978:	4770      	bx	lr
	...

0800097c <SCCB_Start>:


static int SCCB_Start(void)
{
 800097c:	b580      	push	{r7, lr}
 800097e:	af00      	add	r7, sp, #0
	SDA_H;
 8000980:	4b13      	ldr	r3, [pc, #76]	; (80009d0 <SCCB_Start+0x54>)
 8000982:	2280      	movs	r2, #128	; 0x80
 8000984:	611a      	str	r2, [r3, #16]
	SCL_H;
 8000986:	4b12      	ldr	r3, [pc, #72]	; (80009d0 <SCCB_Start+0x54>)
 8000988:	2240      	movs	r2, #64	; 0x40
 800098a:	611a      	str	r2, [r3, #16]
	SCCB_delay();
 800098c:	f7ff ffe2 	bl	8000954 <SCCB_delay>
	if(!SDA_read)
 8000990:	2180      	movs	r1, #128	; 0x80
 8000992:	480f      	ldr	r0, [pc, #60]	; (80009d0 <SCCB_Start+0x54>)
 8000994:	f001 fd68 	bl	8002468 <HAL_GPIO_ReadPin>
 8000998:	4603      	mov	r3, r0
 800099a:	2b00      	cmp	r3, #0
 800099c:	d101      	bne.n	80009a2 <SCCB_Start+0x26>
	return DISABLE;	
 800099e:	2300      	movs	r3, #0
 80009a0:	e013      	b.n	80009ca <SCCB_Start+0x4e>
	SDA_L;
 80009a2:	4b0b      	ldr	r3, [pc, #44]	; (80009d0 <SCCB_Start+0x54>)
 80009a4:	2280      	movs	r2, #128	; 0x80
 80009a6:	615a      	str	r2, [r3, #20]
	SCCB_delay();
 80009a8:	f7ff ffd4 	bl	8000954 <SCCB_delay>
	if(SDA_read) 
 80009ac:	2180      	movs	r1, #128	; 0x80
 80009ae:	4808      	ldr	r0, [pc, #32]	; (80009d0 <SCCB_Start+0x54>)
 80009b0:	f001 fd5a 	bl	8002468 <HAL_GPIO_ReadPin>
 80009b4:	4603      	mov	r3, r0
 80009b6:	2b00      	cmp	r3, #0
 80009b8:	d001      	beq.n	80009be <SCCB_Start+0x42>
	return DISABLE;	
 80009ba:	2300      	movs	r3, #0
 80009bc:	e005      	b.n	80009ca <SCCB_Start+0x4e>
	SDA_L;
 80009be:	4b04      	ldr	r3, [pc, #16]	; (80009d0 <SCCB_Start+0x54>)
 80009c0:	2280      	movs	r2, #128	; 0x80
 80009c2:	615a      	str	r2, [r3, #20]
	SCCB_delay();
 80009c4:	f7ff ffc6 	bl	8000954 <SCCB_delay>
	return ENABLE;
 80009c8:	2301      	movs	r3, #1
}
 80009ca:	4618      	mov	r0, r3
 80009cc:	bd80      	pop	{r7, pc}
 80009ce:	bf00      	nop
 80009d0:	40011000 	.word	0x40011000

080009d4 <SCCB_Stop>:


static void SCCB_Stop(void)
{
 80009d4:	b580      	push	{r7, lr}
 80009d6:	af00      	add	r7, sp, #0
	SCL_L;
 80009d8:	4b0a      	ldr	r3, [pc, #40]	; (8000a04 <SCCB_Stop+0x30>)
 80009da:	2240      	movs	r2, #64	; 0x40
 80009dc:	615a      	str	r2, [r3, #20]
	SCCB_delay();
 80009de:	f7ff ffb9 	bl	8000954 <SCCB_delay>
	SDA_L;
 80009e2:	4b08      	ldr	r3, [pc, #32]	; (8000a04 <SCCB_Stop+0x30>)
 80009e4:	2280      	movs	r2, #128	; 0x80
 80009e6:	615a      	str	r2, [r3, #20]
	SCCB_delay();
 80009e8:	f7ff ffb4 	bl	8000954 <SCCB_delay>
	SCL_H;
 80009ec:	4b05      	ldr	r3, [pc, #20]	; (8000a04 <SCCB_Stop+0x30>)
 80009ee:	2240      	movs	r2, #64	; 0x40
 80009f0:	611a      	str	r2, [r3, #16]
	SCCB_delay();
 80009f2:	f7ff ffaf 	bl	8000954 <SCCB_delay>
	SDA_H;
 80009f6:	4b03      	ldr	r3, [pc, #12]	; (8000a04 <SCCB_Stop+0x30>)
 80009f8:	2280      	movs	r2, #128	; 0x80
 80009fa:	611a      	str	r2, [r3, #16]
	SCCB_delay();
 80009fc:	f7ff ffaa 	bl	8000954 <SCCB_delay>
}
 8000a00:	bf00      	nop
 8000a02:	bd80      	pop	{r7, pc}
 8000a04:	40011000 	.word	0x40011000

08000a08 <SCCB_Ack>:


static void SCCB_Ack(void)
{	
 8000a08:	b580      	push	{r7, lr}
 8000a0a:	af00      	add	r7, sp, #0
	SCL_L;
 8000a0c:	4b0a      	ldr	r3, [pc, #40]	; (8000a38 <SCCB_Ack+0x30>)
 8000a0e:	2240      	movs	r2, #64	; 0x40
 8000a10:	615a      	str	r2, [r3, #20]
	SCCB_delay();
 8000a12:	f7ff ff9f 	bl	8000954 <SCCB_delay>
	SDA_L;
 8000a16:	4b08      	ldr	r3, [pc, #32]	; (8000a38 <SCCB_Ack+0x30>)
 8000a18:	2280      	movs	r2, #128	; 0x80
 8000a1a:	615a      	str	r2, [r3, #20]
	SCCB_delay();
 8000a1c:	f7ff ff9a 	bl	8000954 <SCCB_delay>
	SCL_H;
 8000a20:	4b05      	ldr	r3, [pc, #20]	; (8000a38 <SCCB_Ack+0x30>)
 8000a22:	2240      	movs	r2, #64	; 0x40
 8000a24:	611a      	str	r2, [r3, #16]
	SCCB_delay();
 8000a26:	f7ff ff95 	bl	8000954 <SCCB_delay>
	SCL_L;
 8000a2a:	4b03      	ldr	r3, [pc, #12]	; (8000a38 <SCCB_Ack+0x30>)
 8000a2c:	2240      	movs	r2, #64	; 0x40
 8000a2e:	615a      	str	r2, [r3, #20]
	SCCB_delay();
 8000a30:	f7ff ff90 	bl	8000954 <SCCB_delay>
}
 8000a34:	bf00      	nop
 8000a36:	bd80      	pop	{r7, pc}
 8000a38:	40011000 	.word	0x40011000

08000a3c <SCCB_NoAck>:


static void SCCB_NoAck(void)
{	
 8000a3c:	b580      	push	{r7, lr}
 8000a3e:	af00      	add	r7, sp, #0
	SCL_L;
 8000a40:	4b0a      	ldr	r3, [pc, #40]	; (8000a6c <SCCB_NoAck+0x30>)
 8000a42:	2240      	movs	r2, #64	; 0x40
 8000a44:	615a      	str	r2, [r3, #20]
	SCCB_delay();
 8000a46:	f7ff ff85 	bl	8000954 <SCCB_delay>
	SDA_H;
 8000a4a:	4b08      	ldr	r3, [pc, #32]	; (8000a6c <SCCB_NoAck+0x30>)
 8000a4c:	2280      	movs	r2, #128	; 0x80
 8000a4e:	611a      	str	r2, [r3, #16]
	SCCB_delay();
 8000a50:	f7ff ff80 	bl	8000954 <SCCB_delay>
	SCL_H;
 8000a54:	4b05      	ldr	r3, [pc, #20]	; (8000a6c <SCCB_NoAck+0x30>)
 8000a56:	2240      	movs	r2, #64	; 0x40
 8000a58:	611a      	str	r2, [r3, #16]
	SCCB_delay();
 8000a5a:	f7ff ff7b 	bl	8000954 <SCCB_delay>
	SCL_L;
 8000a5e:	4b03      	ldr	r3, [pc, #12]	; (8000a6c <SCCB_NoAck+0x30>)
 8000a60:	2240      	movs	r2, #64	; 0x40
 8000a62:	615a      	str	r2, [r3, #20]
	SCCB_delay();
 8000a64:	f7ff ff76 	bl	8000954 <SCCB_delay>
}
 8000a68:	bf00      	nop
 8000a6a:	bd80      	pop	{r7, pc}
 8000a6c:	40011000 	.word	0x40011000

08000a70 <SCCB_WaitAck>:


static int SCCB_WaitAck(void) 	
{
 8000a70:	b580      	push	{r7, lr}
 8000a72:	af00      	add	r7, sp, #0
	SCL_L;
 8000a74:	4b10      	ldr	r3, [pc, #64]	; (8000ab8 <SCCB_WaitAck+0x48>)
 8000a76:	2240      	movs	r2, #64	; 0x40
 8000a78:	615a      	str	r2, [r3, #20]
	SCCB_delay();
 8000a7a:	f7ff ff6b 	bl	8000954 <SCCB_delay>
	SDA_H;			
 8000a7e:	4b0e      	ldr	r3, [pc, #56]	; (8000ab8 <SCCB_WaitAck+0x48>)
 8000a80:	2280      	movs	r2, #128	; 0x80
 8000a82:	611a      	str	r2, [r3, #16]
	SCCB_delay();
 8000a84:	f7ff ff66 	bl	8000954 <SCCB_delay>
	SCL_H;
 8000a88:	4b0b      	ldr	r3, [pc, #44]	; (8000ab8 <SCCB_WaitAck+0x48>)
 8000a8a:	2240      	movs	r2, #64	; 0x40
 8000a8c:	611a      	str	r2, [r3, #16]
	SCCB_delay();
 8000a8e:	f7ff ff61 	bl	8000954 <SCCB_delay>
	if(SDA_read)
 8000a92:	2180      	movs	r1, #128	; 0x80
 8000a94:	4808      	ldr	r0, [pc, #32]	; (8000ab8 <SCCB_WaitAck+0x48>)
 8000a96:	f001 fce7 	bl	8002468 <HAL_GPIO_ReadPin>
 8000a9a:	4603      	mov	r3, r0
 8000a9c:	2b00      	cmp	r3, #0
 8000a9e:	d004      	beq.n	8000aaa <SCCB_WaitAck+0x3a>
	{
      SCL_L;
 8000aa0:	4b05      	ldr	r3, [pc, #20]	; (8000ab8 <SCCB_WaitAck+0x48>)
 8000aa2:	2240      	movs	r2, #64	; 0x40
 8000aa4:	615a      	str	r2, [r3, #20]
      return DISABLE;
 8000aa6:	2300      	movs	r3, #0
 8000aa8:	e003      	b.n	8000ab2 <SCCB_WaitAck+0x42>
	}
	SCL_L;
 8000aaa:	4b03      	ldr	r3, [pc, #12]	; (8000ab8 <SCCB_WaitAck+0x48>)
 8000aac:	2240      	movs	r2, #64	; 0x40
 8000aae:	615a      	str	r2, [r3, #20]
	return ENABLE;
 8000ab0:	2301      	movs	r3, #1
}
 8000ab2:	4618      	mov	r0, r3
 8000ab4:	bd80      	pop	{r7, pc}
 8000ab6:	bf00      	nop
 8000ab8:	40011000 	.word	0x40011000

08000abc <SCCB_SendByte>:


static void SCCB_SendByte(uint8_t SendByte) 
{
 8000abc:	b580      	push	{r7, lr}
 8000abe:	b084      	sub	sp, #16
 8000ac0:	af00      	add	r7, sp, #0
 8000ac2:	4603      	mov	r3, r0
 8000ac4:	71fb      	strb	r3, [r7, #7]
    uint8_t i=8;
 8000ac6:	2308      	movs	r3, #8
 8000ac8:	73fb      	strb	r3, [r7, #15]
    while(i--)
 8000aca:	e019      	b.n	8000b00 <SCCB_SendByte+0x44>
    {
        SCL_L;
 8000acc:	4b12      	ldr	r3, [pc, #72]	; (8000b18 <SCCB_SendByte+0x5c>)
 8000ace:	2240      	movs	r2, #64	; 0x40
 8000ad0:	615a      	str	r2, [r3, #20]
        SCCB_delay();
 8000ad2:	f7ff ff3f 	bl	8000954 <SCCB_delay>
      if(SendByte&0x80)
 8000ad6:	f997 3007 	ldrsb.w	r3, [r7, #7]
 8000ada:	2b00      	cmp	r3, #0
 8000adc:	da03      	bge.n	8000ae6 <SCCB_SendByte+0x2a>
        SDA_H;  
 8000ade:	4b0e      	ldr	r3, [pc, #56]	; (8000b18 <SCCB_SendByte+0x5c>)
 8000ae0:	2280      	movs	r2, #128	; 0x80
 8000ae2:	611a      	str	r2, [r3, #16]
 8000ae4:	e002      	b.n	8000aec <SCCB_SendByte+0x30>
      else 
        SDA_L;   
 8000ae6:	4b0c      	ldr	r3, [pc, #48]	; (8000b18 <SCCB_SendByte+0x5c>)
 8000ae8:	2280      	movs	r2, #128	; 0x80
 8000aea:	615a      	str	r2, [r3, #20]
        SendByte<<=1;
 8000aec:	79fb      	ldrb	r3, [r7, #7]
 8000aee:	005b      	lsls	r3, r3, #1
 8000af0:	71fb      	strb	r3, [r7, #7]
        SCCB_delay();
 8000af2:	f7ff ff2f 	bl	8000954 <SCCB_delay>
		SCL_H;
 8000af6:	4b08      	ldr	r3, [pc, #32]	; (8000b18 <SCCB_SendByte+0x5c>)
 8000af8:	2240      	movs	r2, #64	; 0x40
 8000afa:	611a      	str	r2, [r3, #16]
        SCCB_delay();
 8000afc:	f7ff ff2a 	bl	8000954 <SCCB_delay>
    while(i--)
 8000b00:	7bfb      	ldrb	r3, [r7, #15]
 8000b02:	1e5a      	subs	r2, r3, #1
 8000b04:	73fa      	strb	r2, [r7, #15]
 8000b06:	2b00      	cmp	r3, #0
 8000b08:	d1e0      	bne.n	8000acc <SCCB_SendByte+0x10>
    }
    SCL_L;
 8000b0a:	4b03      	ldr	r3, [pc, #12]	; (8000b18 <SCCB_SendByte+0x5c>)
 8000b0c:	2240      	movs	r2, #64	; 0x40
 8000b0e:	615a      	str	r2, [r3, #20]
}
 8000b10:	bf00      	nop
 8000b12:	3710      	adds	r7, #16
 8000b14:	46bd      	mov	sp, r7
 8000b16:	bd80      	pop	{r7, pc}
 8000b18:	40011000 	.word	0x40011000

08000b1c <SCCB_ReceiveByte>:


static int SCCB_ReceiveByte(void)  
{ 
 8000b1c:	b580      	push	{r7, lr}
 8000b1e:	b082      	sub	sp, #8
 8000b20:	af00      	add	r7, sp, #0
    uint8_t i=8;
 8000b22:	2308      	movs	r3, #8
 8000b24:	71fb      	strb	r3, [r7, #7]
    uint8_t ReceiveByte=0;
 8000b26:	2300      	movs	r3, #0
 8000b28:	71bb      	strb	r3, [r7, #6]

    SDA_H;				
 8000b2a:	4b14      	ldr	r3, [pc, #80]	; (8000b7c <SCCB_ReceiveByte+0x60>)
 8000b2c:	2280      	movs	r2, #128	; 0x80
 8000b2e:	611a      	str	r2, [r3, #16]
    while(i--)
 8000b30:	e017      	b.n	8000b62 <SCCB_ReceiveByte+0x46>
    {
      ReceiveByte<<=1;      
 8000b32:	79bb      	ldrb	r3, [r7, #6]
 8000b34:	005b      	lsls	r3, r3, #1
 8000b36:	71bb      	strb	r3, [r7, #6]
      SCL_L;
 8000b38:	4b10      	ldr	r3, [pc, #64]	; (8000b7c <SCCB_ReceiveByte+0x60>)
 8000b3a:	2240      	movs	r2, #64	; 0x40
 8000b3c:	615a      	str	r2, [r3, #20]
      SCCB_delay();
 8000b3e:	f7ff ff09 	bl	8000954 <SCCB_delay>
	  SCL_H;
 8000b42:	4b0e      	ldr	r3, [pc, #56]	; (8000b7c <SCCB_ReceiveByte+0x60>)
 8000b44:	2240      	movs	r2, #64	; 0x40
 8000b46:	611a      	str	r2, [r3, #16]
      SCCB_delay();	
 8000b48:	f7ff ff04 	bl	8000954 <SCCB_delay>
      if(SDA_read)
 8000b4c:	2180      	movs	r1, #128	; 0x80
 8000b4e:	480b      	ldr	r0, [pc, #44]	; (8000b7c <SCCB_ReceiveByte+0x60>)
 8000b50:	f001 fc8a 	bl	8002468 <HAL_GPIO_ReadPin>
 8000b54:	4603      	mov	r3, r0
 8000b56:	2b00      	cmp	r3, #0
 8000b58:	d003      	beq.n	8000b62 <SCCB_ReceiveByte+0x46>
      {
        ReceiveByte|=0x01;
 8000b5a:	79bb      	ldrb	r3, [r7, #6]
 8000b5c:	f043 0301 	orr.w	r3, r3, #1
 8000b60:	71bb      	strb	r3, [r7, #6]
    while(i--)
 8000b62:	79fb      	ldrb	r3, [r7, #7]
 8000b64:	1e5a      	subs	r2, r3, #1
 8000b66:	71fa      	strb	r2, [r7, #7]
 8000b68:	2b00      	cmp	r3, #0
 8000b6a:	d1e2      	bne.n	8000b32 <SCCB_ReceiveByte+0x16>
      }
    }
    SCL_L;
 8000b6c:	4b03      	ldr	r3, [pc, #12]	; (8000b7c <SCCB_ReceiveByte+0x60>)
 8000b6e:	2240      	movs	r2, #64	; 0x40
 8000b70:	615a      	str	r2, [r3, #20]
    return ReceiveByte;
 8000b72:	79bb      	ldrb	r3, [r7, #6]
}
 8000b74:	4618      	mov	r0, r3
 8000b76:	3708      	adds	r7, #8
 8000b78:	46bd      	mov	sp, r7
 8000b7a:	bd80      	pop	{r7, pc}
 8000b7c:	40011000 	.word	0x40011000

08000b80 <SCCB_WriteByte>:

          
int SCCB_WriteByte( uint16_t WriteAddress , uint8_t SendByte )
{		
 8000b80:	b580      	push	{r7, lr}
 8000b82:	b082      	sub	sp, #8
 8000b84:	af00      	add	r7, sp, #0
 8000b86:	4603      	mov	r3, r0
 8000b88:	460a      	mov	r2, r1
 8000b8a:	80fb      	strh	r3, [r7, #6]
 8000b8c:	4613      	mov	r3, r2
 8000b8e:	717b      	strb	r3, [r7, #5]
    if(!SCCB_Start())
 8000b90:	f7ff fef4 	bl	800097c <SCCB_Start>
 8000b94:	4603      	mov	r3, r0
 8000b96:	2b00      	cmp	r3, #0
 8000b98:	d101      	bne.n	8000b9e <SCCB_WriteByte+0x1e>
	{
	    return DISABLE;
 8000b9a:	2300      	movs	r3, #0
 8000b9c:	e01b      	b.n	8000bd6 <SCCB_WriteByte+0x56>
	}
    SCCB_SendByte( DEV_ADR );                
 8000b9e:	2042      	movs	r0, #66	; 0x42
 8000ba0:	f7ff ff8c 	bl	8000abc <SCCB_SendByte>
    if( !SCCB_WaitAck() )
 8000ba4:	f7ff ff64 	bl	8000a70 <SCCB_WaitAck>
 8000ba8:	4603      	mov	r3, r0
 8000baa:	2b00      	cmp	r3, #0
 8000bac:	d103      	bne.n	8000bb6 <SCCB_WriteByte+0x36>
	{
		SCCB_Stop(); 
 8000bae:	f7ff ff11 	bl	80009d4 <SCCB_Stop>
		return DISABLE;
 8000bb2:	2300      	movs	r3, #0
 8000bb4:	e00f      	b.n	8000bd6 <SCCB_WriteByte+0x56>
	}
    SCCB_SendByte((uint8_t)(WriteAddress & 0x00FF));  
 8000bb6:	88fb      	ldrh	r3, [r7, #6]
 8000bb8:	b2db      	uxtb	r3, r3
 8000bba:	4618      	mov	r0, r3
 8000bbc:	f7ff ff7e 	bl	8000abc <SCCB_SendByte>
    SCCB_WaitAck();	
 8000bc0:	f7ff ff56 	bl	8000a70 <SCCB_WaitAck>
    SCCB_SendByte(SendByte);
 8000bc4:	797b      	ldrb	r3, [r7, #5]
 8000bc6:	4618      	mov	r0, r3
 8000bc8:	f7ff ff78 	bl	8000abc <SCCB_SendByte>
    SCCB_WaitAck();   
 8000bcc:	f7ff ff50 	bl	8000a70 <SCCB_WaitAck>
    SCCB_Stop(); 
 8000bd0:	f7ff ff00 	bl	80009d4 <SCCB_Stop>
    return ENABLE;
 8000bd4:	2301      	movs	r3, #1
}
 8000bd6:	4618      	mov	r0, r3
 8000bd8:	3708      	adds	r7, #8
 8000bda:	46bd      	mov	sp, r7
 8000bdc:	bd80      	pop	{r7, pc}

08000bde <SCCB_ReadByte>:

          
int SCCB_ReadByte(uint8_t* pBuffer, uint16_t length, uint8_t ReadAddress)
{	
 8000bde:	b580      	push	{r7, lr}
 8000be0:	b082      	sub	sp, #8
 8000be2:	af00      	add	r7, sp, #0
 8000be4:	6078      	str	r0, [r7, #4]
 8000be6:	460b      	mov	r3, r1
 8000be8:	807b      	strh	r3, [r7, #2]
 8000bea:	4613      	mov	r3, r2
 8000bec:	707b      	strb	r3, [r7, #1]
    if(!SCCB_Start())
 8000bee:	f7ff fec5 	bl	800097c <SCCB_Start>
 8000bf2:	4603      	mov	r3, r0
 8000bf4:	2b00      	cmp	r3, #0
 8000bf6:	d101      	bne.n	8000bfc <SCCB_ReadByte+0x1e>
	{
	    return DISABLE;
 8000bf8:	2300      	movs	r3, #0
 8000bfa:	e040      	b.n	8000c7e <SCCB_ReadByte+0xa0>
	}
    SCCB_SendByte( DEV_ADR );       
 8000bfc:	2042      	movs	r0, #66	; 0x42
 8000bfe:	f7ff ff5d 	bl	8000abc <SCCB_SendByte>
    if( !SCCB_WaitAck() )
 8000c02:	f7ff ff35 	bl	8000a70 <SCCB_WaitAck>
 8000c06:	4603      	mov	r3, r0
 8000c08:	2b00      	cmp	r3, #0
 8000c0a:	d103      	bne.n	8000c14 <SCCB_ReadByte+0x36>
	{
		SCCB_Stop(); 
 8000c0c:	f7ff fee2 	bl	80009d4 <SCCB_Stop>
		return DISABLE;
 8000c10:	2300      	movs	r3, #0
 8000c12:	e034      	b.n	8000c7e <SCCB_ReadByte+0xa0>
	}
    SCCB_SendByte( ReadAddress );     
 8000c14:	787b      	ldrb	r3, [r7, #1]
 8000c16:	4618      	mov	r0, r3
 8000c18:	f7ff ff50 	bl	8000abc <SCCB_SendByte>
    SCCB_WaitAck();	
 8000c1c:	f7ff ff28 	bl	8000a70 <SCCB_WaitAck>
    SCCB_Stop(); 
 8000c20:	f7ff fed8 	bl	80009d4 <SCCB_Stop>
	
    if(!SCCB_Start())
 8000c24:	f7ff feaa 	bl	800097c <SCCB_Start>
 8000c28:	4603      	mov	r3, r0
 8000c2a:	2b00      	cmp	r3, #0
 8000c2c:	d101      	bne.n	8000c32 <SCCB_ReadByte+0x54>
	{
		return DISABLE;
 8000c2e:	2300      	movs	r3, #0
 8000c30:	e025      	b.n	8000c7e <SCCB_ReadByte+0xa0>
	}
    SCCB_SendByte( DEV_ADR + 1 );   
 8000c32:	2043      	movs	r0, #67	; 0x43
 8000c34:	f7ff ff42 	bl	8000abc <SCCB_SendByte>
    if(!SCCB_WaitAck())
 8000c38:	f7ff ff1a 	bl	8000a70 <SCCB_WaitAck>
 8000c3c:	4603      	mov	r3, r0
 8000c3e:	2b00      	cmp	r3, #0
 8000c40:	d117      	bne.n	8000c72 <SCCB_ReadByte+0x94>
	{
		SCCB_Stop(); 
 8000c42:	f7ff fec7 	bl	80009d4 <SCCB_Stop>
		return DISABLE;
 8000c46:	2300      	movs	r3, #0
 8000c48:	e019      	b.n	8000c7e <SCCB_ReadByte+0xa0>
	}
    while(length)
    {
      *pBuffer = SCCB_ReceiveByte();
 8000c4a:	f7ff ff67 	bl	8000b1c <SCCB_ReceiveByte>
 8000c4e:	4603      	mov	r3, r0
 8000c50:	b2da      	uxtb	r2, r3
 8000c52:	687b      	ldr	r3, [r7, #4]
 8000c54:	701a      	strb	r2, [r3, #0]
      if(length == 1)
 8000c56:	887b      	ldrh	r3, [r7, #2]
 8000c58:	2b01      	cmp	r3, #1
 8000c5a:	d102      	bne.n	8000c62 <SCCB_ReadByte+0x84>
	  {
		  SCCB_NoAck();
 8000c5c:	f7ff feee 	bl	8000a3c <SCCB_NoAck>
 8000c60:	e001      	b.n	8000c66 <SCCB_ReadByte+0x88>
	  }
      else
	  {
		SCCB_Ack(); 
 8000c62:	f7ff fed1 	bl	8000a08 <SCCB_Ack>
	  }
      pBuffer++;
 8000c66:	687b      	ldr	r3, [r7, #4]
 8000c68:	3301      	adds	r3, #1
 8000c6a:	607b      	str	r3, [r7, #4]
      length--;
 8000c6c:	887b      	ldrh	r3, [r7, #2]
 8000c6e:	3b01      	subs	r3, #1
 8000c70:	807b      	strh	r3, [r7, #2]
    while(length)
 8000c72:	887b      	ldrh	r3, [r7, #2]
 8000c74:	2b00      	cmp	r3, #0
 8000c76:	d1e8      	bne.n	8000c4a <SCCB_ReadByte+0x6c>
    }
    SCCB_Stop();
 8000c78:	f7ff feac 	bl	80009d4 <SCCB_Stop>
    return ENABLE;
 8000c7c:	2301      	movs	r3, #1
}
 8000c7e:	4618      	mov	r0, r3
 8000c80:	3708      	adds	r7, #8
 8000c82:	46bd      	mov	sp, r7
 8000c84:	bd80      	pop	{r7, pc}
	...

08000c88 <MX_FSMC_Init>:

SRAM_HandleTypeDef hsram1;

/* FSMC initialization function */
void MX_FSMC_Init(void)
{
 8000c88:	b580      	push	{r7, lr}
 8000c8a:	b088      	sub	sp, #32
 8000c8c:	af00      	add	r7, sp, #0
  FSMC_NORSRAM_TimingTypeDef Timing = {0};
 8000c8e:	1d3b      	adds	r3, r7, #4
 8000c90:	2200      	movs	r2, #0
 8000c92:	601a      	str	r2, [r3, #0]
 8000c94:	605a      	str	r2, [r3, #4]
 8000c96:	609a      	str	r2, [r3, #8]
 8000c98:	60da      	str	r2, [r3, #12]
 8000c9a:	611a      	str	r2, [r3, #16]
 8000c9c:	615a      	str	r2, [r3, #20]
 8000c9e:	619a      	str	r2, [r3, #24]

  /** Perform the SRAM1 memory initialization sequence
  */
  hsram1.Instance = FSMC_NORSRAM_DEVICE;
 8000ca0:	4b28      	ldr	r3, [pc, #160]	; (8000d44 <MX_FSMC_Init+0xbc>)
 8000ca2:	f04f 4220 	mov.w	r2, #2684354560	; 0xa0000000
 8000ca6:	601a      	str	r2, [r3, #0]
  hsram1.Extended = FSMC_NORSRAM_EXTENDED_DEVICE;
 8000ca8:	4b26      	ldr	r3, [pc, #152]	; (8000d44 <MX_FSMC_Init+0xbc>)
 8000caa:	4a27      	ldr	r2, [pc, #156]	; (8000d48 <MX_FSMC_Init+0xc0>)
 8000cac:	605a      	str	r2, [r3, #4]
  /* hsram1.Init */
  hsram1.Init.NSBank = FSMC_NORSRAM_BANK1;
 8000cae:	4b25      	ldr	r3, [pc, #148]	; (8000d44 <MX_FSMC_Init+0xbc>)
 8000cb0:	2200      	movs	r2, #0
 8000cb2:	609a      	str	r2, [r3, #8]
  hsram1.Init.DataAddressMux = FSMC_DATA_ADDRESS_MUX_DISABLE;
 8000cb4:	4b23      	ldr	r3, [pc, #140]	; (8000d44 <MX_FSMC_Init+0xbc>)
 8000cb6:	2200      	movs	r2, #0
 8000cb8:	60da      	str	r2, [r3, #12]
  hsram1.Init.MemoryType = FSMC_MEMORY_TYPE_SRAM;
 8000cba:	4b22      	ldr	r3, [pc, #136]	; (8000d44 <MX_FSMC_Init+0xbc>)
 8000cbc:	2200      	movs	r2, #0
 8000cbe:	611a      	str	r2, [r3, #16]
  hsram1.Init.MemoryDataWidth = FSMC_NORSRAM_MEM_BUS_WIDTH_16;
 8000cc0:	4b20      	ldr	r3, [pc, #128]	; (8000d44 <MX_FSMC_Init+0xbc>)
 8000cc2:	2210      	movs	r2, #16
 8000cc4:	615a      	str	r2, [r3, #20]
  hsram1.Init.BurstAccessMode = FSMC_BURST_ACCESS_MODE_DISABLE;
 8000cc6:	4b1f      	ldr	r3, [pc, #124]	; (8000d44 <MX_FSMC_Init+0xbc>)
 8000cc8:	2200      	movs	r2, #0
 8000cca:	619a      	str	r2, [r3, #24]
  hsram1.Init.WaitSignalPolarity = FSMC_WAIT_SIGNAL_POLARITY_LOW;
 8000ccc:	4b1d      	ldr	r3, [pc, #116]	; (8000d44 <MX_FSMC_Init+0xbc>)
 8000cce:	2200      	movs	r2, #0
 8000cd0:	61da      	str	r2, [r3, #28]
  hsram1.Init.WrapMode = FSMC_WRAP_MODE_DISABLE;
 8000cd2:	4b1c      	ldr	r3, [pc, #112]	; (8000d44 <MX_FSMC_Init+0xbc>)
 8000cd4:	2200      	movs	r2, #0
 8000cd6:	621a      	str	r2, [r3, #32]
  hsram1.Init.WaitSignalActive = FSMC_WAIT_TIMING_BEFORE_WS;
 8000cd8:	4b1a      	ldr	r3, [pc, #104]	; (8000d44 <MX_FSMC_Init+0xbc>)
 8000cda:	2200      	movs	r2, #0
 8000cdc:	625a      	str	r2, [r3, #36]	; 0x24
  hsram1.Init.WriteOperation = FSMC_WRITE_OPERATION_ENABLE;
 8000cde:	4b19      	ldr	r3, [pc, #100]	; (8000d44 <MX_FSMC_Init+0xbc>)
 8000ce0:	f44f 5280 	mov.w	r2, #4096	; 0x1000
 8000ce4:	629a      	str	r2, [r3, #40]	; 0x28
  hsram1.Init.WaitSignal = FSMC_WAIT_SIGNAL_DISABLE;
 8000ce6:	4b17      	ldr	r3, [pc, #92]	; (8000d44 <MX_FSMC_Init+0xbc>)
 8000ce8:	2200      	movs	r2, #0
 8000cea:	62da      	str	r2, [r3, #44]	; 0x2c
  hsram1.Init.ExtendedMode = FSMC_EXTENDED_MODE_DISABLE;
 8000cec:	4b15      	ldr	r3, [pc, #84]	; (8000d44 <MX_FSMC_Init+0xbc>)
 8000cee:	2200      	movs	r2, #0
 8000cf0:	631a      	str	r2, [r3, #48]	; 0x30
  hsram1.Init.AsynchronousWait = FSMC_ASYNCHRONOUS_WAIT_DISABLE;
 8000cf2:	4b14      	ldr	r3, [pc, #80]	; (8000d44 <MX_FSMC_Init+0xbc>)
 8000cf4:	2200      	movs	r2, #0
 8000cf6:	635a      	str	r2, [r3, #52]	; 0x34
  hsram1.Init.WriteBurst = FSMC_WRITE_BURST_DISABLE;
 8000cf8:	4b12      	ldr	r3, [pc, #72]	; (8000d44 <MX_FSMC_Init+0xbc>)
 8000cfa:	2200      	movs	r2, #0
 8000cfc:	639a      	str	r2, [r3, #56]	; 0x38
  /* Timing */
  Timing.AddressSetupTime = 15;
 8000cfe:	230f      	movs	r3, #15
 8000d00:	607b      	str	r3, [r7, #4]
  Timing.AddressHoldTime = 15;
 8000d02:	230f      	movs	r3, #15
 8000d04:	60bb      	str	r3, [r7, #8]
  Timing.DataSetupTime = 255;
 8000d06:	23ff      	movs	r3, #255	; 0xff
 8000d08:	60fb      	str	r3, [r7, #12]
  Timing.BusTurnAroundDuration = 15;
 8000d0a:	230f      	movs	r3, #15
 8000d0c:	613b      	str	r3, [r7, #16]
  Timing.CLKDivision = 16;
 8000d0e:	2310      	movs	r3, #16
 8000d10:	617b      	str	r3, [r7, #20]
  Timing.DataLatency = 17;
 8000d12:	2311      	movs	r3, #17
 8000d14:	61bb      	str	r3, [r7, #24]
  Timing.AccessMode = FSMC_ACCESS_MODE_A;
 8000d16:	2300      	movs	r3, #0
 8000d18:	61fb      	str	r3, [r7, #28]
  /* ExtTiming */

  if (HAL_SRAM_Init(&hsram1, &Timing, NULL) != HAL_OK)
 8000d1a:	1d3b      	adds	r3, r7, #4
 8000d1c:	2200      	movs	r2, #0
 8000d1e:	4619      	mov	r1, r3
 8000d20:	4808      	ldr	r0, [pc, #32]	; (8000d44 <MX_FSMC_Init+0xbc>)
 8000d22:	f002 f813 	bl	8002d4c <HAL_SRAM_Init>
 8000d26:	4603      	mov	r3, r0
 8000d28:	2b00      	cmp	r3, #0
 8000d2a:	d001      	beq.n	8000d30 <MX_FSMC_Init+0xa8>
  {
    Error_Handler( );
 8000d2c:	f000 fc87 	bl	800163e <Error_Handler>
  }

  /** Disconnect NADV
  */

  __HAL_AFIO_FSMCNADV_DISCONNECTED();
 8000d30:	4b06      	ldr	r3, [pc, #24]	; (8000d4c <MX_FSMC_Init+0xc4>)
 8000d32:	69db      	ldr	r3, [r3, #28]
 8000d34:	4a05      	ldr	r2, [pc, #20]	; (8000d4c <MX_FSMC_Init+0xc4>)
 8000d36:	f443 6380 	orr.w	r3, r3, #1024	; 0x400
 8000d3a:	61d3      	str	r3, [r2, #28]

}
 8000d3c:	bf00      	nop
 8000d3e:	3720      	adds	r7, #32
 8000d40:	46bd      	mov	sp, r7
 8000d42:	bd80      	pop	{r7, pc}
 8000d44:	200000c4 	.word	0x200000c4
 8000d48:	a0000104 	.word	0xa0000104
 8000d4c:	40010000 	.word	0x40010000

08000d50 <HAL_FSMC_MspInit>:

static uint32_t FSMC_Initialized = 0;

static void HAL_FSMC_MspInit(void){
 8000d50:	b580      	push	{r7, lr}
 8000d52:	b086      	sub	sp, #24
 8000d54:	af00      	add	r7, sp, #0
  /* USER CODE BEGIN FSMC_MspInit 0 */

  /* USER CODE END FSMC_MspInit 0 */
  GPIO_InitTypeDef GPIO_InitStruct = {0};
 8000d56:	f107 0308 	add.w	r3, r7, #8
 8000d5a:	2200      	movs	r2, #0
 8000d5c:	601a      	str	r2, [r3, #0]
 8000d5e:	605a      	str	r2, [r3, #4]
 8000d60:	609a      	str	r2, [r3, #8]
 8000d62:	60da      	str	r2, [r3, #12]
  if (FSMC_Initialized) {
 8000d64:	4b18      	ldr	r3, [pc, #96]	; (8000dc8 <HAL_FSMC_MspInit+0x78>)
 8000d66:	681b      	ldr	r3, [r3, #0]
 8000d68:	2b00      	cmp	r3, #0
 8000d6a:	d129      	bne.n	8000dc0 <HAL_FSMC_MspInit+0x70>
    return;
  }
  FSMC_Initialized = 1;
 8000d6c:	4b16      	ldr	r3, [pc, #88]	; (8000dc8 <HAL_FSMC_MspInit+0x78>)
 8000d6e:	2201      	movs	r2, #1
 8000d70:	601a      	str	r2, [r3, #0]
  /* Peripheral clock enable */
  __HAL_RCC_FSMC_CLK_ENABLE();
 8000d72:	4b16      	ldr	r3, [pc, #88]	; (8000dcc <HAL_FSMC_MspInit+0x7c>)
 8000d74:	695b      	ldr	r3, [r3, #20]
 8000d76:	4a15      	ldr	r2, [pc, #84]	; (8000dcc <HAL_FSMC_MspInit+0x7c>)
 8000d78:	f443 7380 	orr.w	r3, r3, #256	; 0x100
 8000d7c:	6153      	str	r3, [r2, #20]
 8000d7e:	4b13      	ldr	r3, [pc, #76]	; (8000dcc <HAL_FSMC_MspInit+0x7c>)
 8000d80:	695b      	ldr	r3, [r3, #20]
 8000d82:	f403 7380 	and.w	r3, r3, #256	; 0x100
 8000d86:	607b      	str	r3, [r7, #4]
 8000d88:	687b      	ldr	r3, [r7, #4]
  PD4   ------> FSMC_NOE
  PD5   ------> FSMC_NWE
  PD7   ------> FSMC_NE1
  */
  /* GPIO_InitStruct */
  GPIO_InitStruct.Pin = GPIO_PIN_7|GPIO_PIN_8|GPIO_PIN_9|GPIO_PIN_10
 8000d8a:	f64f 7380 	movw	r3, #65408	; 0xff80
 8000d8e:	60bb      	str	r3, [r7, #8]
                          |GPIO_PIN_11|GPIO_PIN_12|GPIO_PIN_13|GPIO_PIN_14
                          |GPIO_PIN_15;
  GPIO_InitStruct.Mode = GPIO_MODE_AF_PP;
 8000d90:	2302      	movs	r3, #2
 8000d92:	60fb      	str	r3, [r7, #12]
  GPIO_InitStruct.Speed = GPIO_SPEED_FREQ_HIGH;
 8000d94:	2303      	movs	r3, #3
 8000d96:	617b      	str	r3, [r7, #20]

  HAL_GPIO_Init(GPIOE, &GPIO_InitStruct);
 8000d98:	f107 0308 	add.w	r3, r7, #8
 8000d9c:	4619      	mov	r1, r3
 8000d9e:	480c      	ldr	r0, [pc, #48]	; (8000dd0 <HAL_FSMC_MspInit+0x80>)
 8000da0:	f001 f9ca 	bl	8002138 <HAL_GPIO_Init>

  /* GPIO_InitStruct */
  GPIO_InitStruct.Pin = GPIO_PIN_8|GPIO_PIN_9|GPIO_PIN_10|GPIO_PIN_11
 8000da4:	f64c 73b3 	movw	r3, #53171	; 0xcfb3
 8000da8:	60bb      	str	r3, [r7, #8]
                          |GPIO_PIN_14|GPIO_PIN_15|GPIO_PIN_0|GPIO_PIN_1
                          |GPIO_PIN_4|GPIO_PIN_5|GPIO_PIN_7;
  GPIO_InitStruct.Mode = GPIO_MODE_AF_PP;
 8000daa:	2302      	movs	r3, #2
 8000dac:	60fb      	str	r3, [r7, #12]
  GPIO_InitStruct.Speed = GPIO_SPEED_FREQ_HIGH;
 8000dae:	2303      	movs	r3, #3
 8000db0:	617b      	str	r3, [r7, #20]

  HAL_GPIO_Init(GPIOD, &GPIO_InitStruct);
 8000db2:	f107 0308 	add.w	r3, r7, #8
 8000db6:	4619      	mov	r1, r3
 8000db8:	4806      	ldr	r0, [pc, #24]	; (8000dd4 <HAL_FSMC_MspInit+0x84>)
 8000dba:	f001 f9bd 	bl	8002138 <HAL_GPIO_Init>
 8000dbe:	e000      	b.n	8000dc2 <HAL_FSMC_MspInit+0x72>
    return;
 8000dc0:	bf00      	nop

  /* USER CODE BEGIN FSMC_MspInit 1 */

  /* USER CODE END FSMC_MspInit 1 */
}
 8000dc2:	3718      	adds	r7, #24
 8000dc4:	46bd      	mov	sp, r7
 8000dc6:	bd80      	pop	{r7, pc}
 8000dc8:	20000108 	.word	0x20000108
 8000dcc:	40021000 	.word	0x40021000
 8000dd0:	40011800 	.word	0x40011800
 8000dd4:	40011400 	.word	0x40011400

08000dd8 <HAL_SRAM_MspInit>:

void HAL_SRAM_MspInit(SRAM_HandleTypeDef* sramHandle){
 8000dd8:	b580      	push	{r7, lr}
 8000dda:	b082      	sub	sp, #8
 8000ddc:	af00      	add	r7, sp, #0
 8000dde:	6078      	str	r0, [r7, #4]
  /* USER CODE BEGIN SRAM_MspInit 0 */

  /* USER CODE END SRAM_MspInit 0 */
  HAL_FSMC_MspInit();
 8000de0:	f7ff ffb6 	bl	8000d50 <HAL_FSMC_MspInit>
  /* USER CODE BEGIN SRAM_MspInit 1 */

  /* USER CODE END SRAM_MspInit 1 */
}
 8000de4:	bf00      	nop
 8000de6:	3708      	adds	r7, #8
 8000de8:	46bd      	mov	sp, r7
 8000dea:	bd80      	pop	{r7, pc}

08000dec <MX_GPIO_Init>:
        * Output
        * EVENT_OUT
        * EXTI
*/
void MX_GPIO_Init(void)
{
 8000dec:	b580      	push	{r7, lr}
 8000dee:	b08a      	sub	sp, #40	; 0x28
 8000df0:	af00      	add	r7, sp, #0

  GPIO_InitTypeDef GPIO_InitStruct = {0};
 8000df2:	f107 0318 	add.w	r3, r7, #24
 8000df6:	2200      	movs	r2, #0
 8000df8:	601a      	str	r2, [r3, #0]
 8000dfa:	605a      	str	r2, [r3, #4]
 8000dfc:	609a      	str	r2, [r3, #8]
 8000dfe:	60da      	str	r2, [r3, #12]

  /* GPIO Ports Clock Enable */
  __HAL_RCC_GPIOE_CLK_ENABLE();
 8000e00:	4b7d      	ldr	r3, [pc, #500]	; (8000ff8 <MX_GPIO_Init+0x20c>)
 8000e02:	699b      	ldr	r3, [r3, #24]
 8000e04:	4a7c      	ldr	r2, [pc, #496]	; (8000ff8 <MX_GPIO_Init+0x20c>)
 8000e06:	f043 0340 	orr.w	r3, r3, #64	; 0x40
 8000e0a:	6193      	str	r3, [r2, #24]
 8000e0c:	4b7a      	ldr	r3, [pc, #488]	; (8000ff8 <MX_GPIO_Init+0x20c>)
 8000e0e:	699b      	ldr	r3, [r3, #24]
 8000e10:	f003 0340 	and.w	r3, r3, #64	; 0x40
 8000e14:	617b      	str	r3, [r7, #20]
 8000e16:	697b      	ldr	r3, [r7, #20]
  __HAL_RCC_GPIOC_CLK_ENABLE();
 8000e18:	4b77      	ldr	r3, [pc, #476]	; (8000ff8 <MX_GPIO_Init+0x20c>)
 8000e1a:	699b      	ldr	r3, [r3, #24]
 8000e1c:	4a76      	ldr	r2, [pc, #472]	; (8000ff8 <MX_GPIO_Init+0x20c>)
 8000e1e:	f043 0310 	orr.w	r3, r3, #16
 8000e22:	6193      	str	r3, [r2, #24]
 8000e24:	4b74      	ldr	r3, [pc, #464]	; (8000ff8 <MX_GPIO_Init+0x20c>)
 8000e26:	699b      	ldr	r3, [r3, #24]
 8000e28:	f003 0310 	and.w	r3, r3, #16
 8000e2c:	613b      	str	r3, [r7, #16]
 8000e2e:	693b      	ldr	r3, [r7, #16]
  __HAL_RCC_GPIOA_CLK_ENABLE();
 8000e30:	4b71      	ldr	r3, [pc, #452]	; (8000ff8 <MX_GPIO_Init+0x20c>)
 8000e32:	699b      	ldr	r3, [r3, #24]
 8000e34:	4a70      	ldr	r2, [pc, #448]	; (8000ff8 <MX_GPIO_Init+0x20c>)
 8000e36:	f043 0304 	orr.w	r3, r3, #4
 8000e3a:	6193      	str	r3, [r2, #24]
 8000e3c:	4b6e      	ldr	r3, [pc, #440]	; (8000ff8 <MX_GPIO_Init+0x20c>)
 8000e3e:	699b      	ldr	r3, [r3, #24]
 8000e40:	f003 0304 	and.w	r3, r3, #4
 8000e44:	60fb      	str	r3, [r7, #12]
 8000e46:	68fb      	ldr	r3, [r7, #12]
  __HAL_RCC_GPIOB_CLK_ENABLE();
 8000e48:	4b6b      	ldr	r3, [pc, #428]	; (8000ff8 <MX_GPIO_Init+0x20c>)
 8000e4a:	699b      	ldr	r3, [r3, #24]
 8000e4c:	4a6a      	ldr	r2, [pc, #424]	; (8000ff8 <MX_GPIO_Init+0x20c>)
 8000e4e:	f043 0308 	orr.w	r3, r3, #8
 8000e52:	6193      	str	r3, [r2, #24]
 8000e54:	4b68      	ldr	r3, [pc, #416]	; (8000ff8 <MX_GPIO_Init+0x20c>)
 8000e56:	699b      	ldr	r3, [r3, #24]
 8000e58:	f003 0308 	and.w	r3, r3, #8
 8000e5c:	60bb      	str	r3, [r7, #8]
 8000e5e:	68bb      	ldr	r3, [r7, #8]
  __HAL_RCC_GPIOD_CLK_ENABLE();
 8000e60:	4b65      	ldr	r3, [pc, #404]	; (8000ff8 <MX_GPIO_Init+0x20c>)
 8000e62:	699b      	ldr	r3, [r3, #24]
 8000e64:	4a64      	ldr	r2, [pc, #400]	; (8000ff8 <MX_GPIO_Init+0x20c>)
 8000e66:	f043 0320 	orr.w	r3, r3, #32
 8000e6a:	6193      	str	r3, [r2, #24]
 8000e6c:	4b62      	ldr	r3, [pc, #392]	; (8000ff8 <MX_GPIO_Init+0x20c>)
 8000e6e:	699b      	ldr	r3, [r3, #24]
 8000e70:	f003 0320 	and.w	r3, r3, #32
 8000e74:	607b      	str	r3, [r7, #4]
 8000e76:	687b      	ldr	r3, [r7, #4]

  /*Configure GPIO pin Output Level */
  HAL_GPIO_WritePin(GPIOE, GPIO_PIN_2|GPIO_PIN_0|GPIO_PIN_1, GPIO_PIN_RESET);
 8000e78:	2200      	movs	r2, #0
 8000e7a:	2107      	movs	r1, #7
 8000e7c:	485f      	ldr	r0, [pc, #380]	; (8000ffc <MX_GPIO_Init+0x210>)
 8000e7e:	f001 fb0a 	bl	8002496 <HAL_GPIO_WritePin>

  /*Configure GPIO pin Output Level */
  HAL_GPIO_WritePin(GPIOA, GPIO_PIN_2|GPIO_PIN_3, GPIO_PIN_RESET);
 8000e82:	2200      	movs	r2, #0
 8000e84:	210c      	movs	r1, #12
 8000e86:	485e      	ldr	r0, [pc, #376]	; (8001000 <MX_GPIO_Init+0x214>)
 8000e88:	f001 fb05 	bl	8002496 <HAL_GPIO_WritePin>

  /*Configure GPIO pin Output Level */
  HAL_GPIO_WritePin(GPIOC, GPIO_PIN_4|GPIO_PIN_5|GPIO_PIN_6|GPIO_PIN_7, GPIO_PIN_RESET);
 8000e8c:	2200      	movs	r2, #0
 8000e8e:	21f0      	movs	r1, #240	; 0xf0
 8000e90:	485c      	ldr	r0, [pc, #368]	; (8001004 <MX_GPIO_Init+0x218>)
 8000e92:	f001 fb00 	bl	8002496 <HAL_GPIO_WritePin>

  /*Configure GPIO pin Output Level */
  HAL_GPIO_WritePin(GPIOB, GPIO_PIN_0|GPIO_PIN_1|GPIO_PIN_5, GPIO_PIN_SET);
 8000e96:	2201      	movs	r2, #1
 8000e98:	2123      	movs	r1, #35	; 0x23
 8000e9a:	485b      	ldr	r0, [pc, #364]	; (8001008 <MX_GPIO_Init+0x21c>)
 8000e9c:	f001 fafb 	bl	8002496 <HAL_GPIO_WritePin>

  /*Configure GPIO pin Output Level */
  HAL_GPIO_WritePin(GPIOD, GPIO_PIN_12|GPIO_PIN_13|GPIO_PIN_3, GPIO_PIN_RESET);
 8000ea0:	2200      	movs	r2, #0
 8000ea2:	f243 0108 	movw	r1, #12296	; 0x3008
 8000ea6:	4859      	ldr	r0, [pc, #356]	; (800100c <MX_GPIO_Init+0x220>)
 8000ea8:	f001 faf5 	bl	8002496 <HAL_GPIO_WritePin>

  /*Configure GPIO pins : PE2 PE0 PE1 */
  GPIO_InitStruct.Pin = GPIO_PIN_2|GPIO_PIN_0|GPIO_PIN_1;
 8000eac:	2307      	movs	r3, #7
 8000eae:	61bb      	str	r3, [r7, #24]
  GPIO_InitStruct.Mode = GPIO_MODE_OUTPUT_PP;
 8000eb0:	2301      	movs	r3, #1
 8000eb2:	61fb      	str	r3, [r7, #28]
  GPIO_InitStruct.Pull = GPIO_NOPULL;
 8000eb4:	2300      	movs	r3, #0
 8000eb6:	623b      	str	r3, [r7, #32]
  GPIO_InitStruct.Speed = GPIO_SPEED_FREQ_HIGH;
 8000eb8:	2303      	movs	r3, #3
 8000eba:	627b      	str	r3, [r7, #36]	; 0x24
  HAL_GPIO_Init(GPIOE, &GPIO_InitStruct);
 8000ebc:	f107 0318 	add.w	r3, r7, #24
 8000ec0:	4619      	mov	r1, r3
 8000ec2:	484e      	ldr	r0, [pc, #312]	; (8000ffc <MX_GPIO_Init+0x210>)
 8000ec4:	f001 f938 	bl	8002138 <HAL_GPIO_Init>

  /*Configure GPIO pin : PE3 */
  GPIO_InitStruct.Pin = GPIO_PIN_3;
 8000ec8:	2308      	movs	r3, #8
 8000eca:	61bb      	str	r3, [r7, #24]
  GPIO_InitStruct.Mode = GPIO_MODE_INPUT;
 8000ecc:	2300      	movs	r3, #0
 8000ece:	61fb      	str	r3, [r7, #28]
  GPIO_InitStruct.Pull = GPIO_PULLUP;
 8000ed0:	2301      	movs	r3, #1
 8000ed2:	623b      	str	r3, [r7, #32]
  HAL_GPIO_Init(GPIOE, &GPIO_InitStruct);
 8000ed4:	f107 0318 	add.w	r3, r7, #24
 8000ed8:	4619      	mov	r1, r3
 8000eda:	4848      	ldr	r0, [pc, #288]	; (8000ffc <MX_GPIO_Init+0x210>)
 8000edc:	f001 f92c 	bl	8002138 <HAL_GPIO_Init>

  /*Configure GPIO pin : PE4 */
  GPIO_InitStruct.Pin = GPIO_PIN_4;
 8000ee0:	2310      	movs	r3, #16
 8000ee2:	61bb      	str	r3, [r7, #24]
  GPIO_InitStruct.Mode = GPIO_MODE_IT_RISING;
 8000ee4:	4b4a      	ldr	r3, [pc, #296]	; (8001010 <MX_GPIO_Init+0x224>)
 8000ee6:	61fb      	str	r3, [r7, #28]
  GPIO_InitStruct.Pull = GPIO_PULLUP;
 8000ee8:	2301      	movs	r3, #1
 8000eea:	623b      	str	r3, [r7, #32]
  HAL_GPIO_Init(GPIOE, &GPIO_InitStruct);
 8000eec:	f107 0318 	add.w	r3, r7, #24
 8000ef0:	4619      	mov	r1, r3
 8000ef2:	4842      	ldr	r0, [pc, #264]	; (8000ffc <MX_GPIO_Init+0x210>)
 8000ef4:	f001 f920 	bl	8002138 <HAL_GPIO_Init>

  /*Configure GPIO pin : PC3 */
  GPIO_InitStruct.Pin = GPIO_PIN_3;
 8000ef8:	2308      	movs	r3, #8
 8000efa:	61bb      	str	r3, [r7, #24]
  GPIO_InitStruct.Mode = GPIO_MODE_IT_FALLING;
 8000efc:	4b45      	ldr	r3, [pc, #276]	; (8001014 <MX_GPIO_Init+0x228>)
 8000efe:	61fb      	str	r3, [r7, #28]
  GPIO_InitStruct.Pull = GPIO_NOPULL;
 8000f00:	2300      	movs	r3, #0
 8000f02:	623b      	str	r3, [r7, #32]
  HAL_GPIO_Init(GPIOC, &GPIO_InitStruct);
 8000f04:	f107 0318 	add.w	r3, r7, #24
 8000f08:	4619      	mov	r1, r3
 8000f0a:	483e      	ldr	r0, [pc, #248]	; (8001004 <MX_GPIO_Init+0x218>)
 8000f0c:	f001 f914 	bl	8002138 <HAL_GPIO_Init>

  /*Configure GPIO pin : PA0 */
  GPIO_InitStruct.Pin = GPIO_PIN_0;
 8000f10:	2301      	movs	r3, #1
 8000f12:	61bb      	str	r3, [r7, #24]
  GPIO_InitStruct.Mode = GPIO_MODE_INPUT;
 8000f14:	2300      	movs	r3, #0
 8000f16:	61fb      	str	r3, [r7, #28]
  GPIO_InitStruct.Pull = GPIO_NOPULL;
 8000f18:	2300      	movs	r3, #0
 8000f1a:	623b      	str	r3, [r7, #32]
  HAL_GPIO_Init(GPIOA, &GPIO_InitStruct);
 8000f1c:	f107 0318 	add.w	r3, r7, #24
 8000f20:	4619      	mov	r1, r3
 8000f22:	4837      	ldr	r0, [pc, #220]	; (8001000 <MX_GPIO_Init+0x214>)
 8000f24:	f001 f908 	bl	8002138 <HAL_GPIO_Init>

  /*Configure GPIO pins : PA2 PA3 */
  GPIO_InitStruct.Pin = GPIO_PIN_2|GPIO_PIN_3;
 8000f28:	230c      	movs	r3, #12
 8000f2a:	61bb      	str	r3, [r7, #24]
  GPIO_InitStruct.Mode = GPIO_MODE_OUTPUT_PP;
 8000f2c:	2301      	movs	r3, #1
 8000f2e:	61fb      	str	r3, [r7, #28]
  GPIO_InitStruct.Pull = GPIO_NOPULL;
 8000f30:	2300      	movs	r3, #0
 8000f32:	623b      	str	r3, [r7, #32]
  GPIO_InitStruct.Speed = GPIO_SPEED_FREQ_HIGH;
 8000f34:	2303      	movs	r3, #3
 8000f36:	627b      	str	r3, [r7, #36]	; 0x24
  HAL_GPIO_Init(GPIOA, &GPIO_InitStruct);
 8000f38:	f107 0318 	add.w	r3, r7, #24
 8000f3c:	4619      	mov	r1, r3
 8000f3e:	4830      	ldr	r0, [pc, #192]	; (8001000 <MX_GPIO_Init+0x214>)
 8000f40:	f001 f8fa 	bl	8002138 <HAL_GPIO_Init>

  /*Configure GPIO pins : PC4 PC5 */
  GPIO_InitStruct.Pin = GPIO_PIN_4|GPIO_PIN_5;
 8000f44:	2330      	movs	r3, #48	; 0x30
 8000f46:	61bb      	str	r3, [r7, #24]
  GPIO_InitStruct.Mode = GPIO_MODE_OUTPUT_PP;
 8000f48:	2301      	movs	r3, #1
 8000f4a:	61fb      	str	r3, [r7, #28]
  GPIO_InitStruct.Pull = GPIO_NOPULL;
 8000f4c:	2300      	movs	r3, #0
 8000f4e:	623b      	str	r3, [r7, #32]
  GPIO_InitStruct.Speed = GPIO_SPEED_FREQ_HIGH;
 8000f50:	2303      	movs	r3, #3
 8000f52:	627b      	str	r3, [r7, #36]	; 0x24
  HAL_GPIO_Init(GPIOC, &GPIO_InitStruct);
 8000f54:	f107 0318 	add.w	r3, r7, #24
 8000f58:	4619      	mov	r1, r3
 8000f5a:	482a      	ldr	r0, [pc, #168]	; (8001004 <MX_GPIO_Init+0x218>)
 8000f5c:	f001 f8ec 	bl	8002138 <HAL_GPIO_Init>

  /*Configure GPIO pins : PB0 PB1 PB5 */
  GPIO_InitStruct.Pin = GPIO_PIN_0|GPIO_PIN_1|GPIO_PIN_5;
 8000f60:	2323      	movs	r3, #35	; 0x23
 8000f62:	61bb      	str	r3, [r7, #24]
  GPIO_InitStruct.Mode = GPIO_MODE_OUTPUT_PP;
 8000f64:	2301      	movs	r3, #1
 8000f66:	61fb      	str	r3, [r7, #28]
  GPIO_InitStruct.Pull = GPIO_NOPULL;
 8000f68:	2300      	movs	r3, #0
 8000f6a:	623b      	str	r3, [r7, #32]
  GPIO_InitStruct.Speed = GPIO_SPEED_FREQ_HIGH;
 8000f6c:	2303      	movs	r3, #3
 8000f6e:	627b      	str	r3, [r7, #36]	; 0x24
  HAL_GPIO_Init(GPIOB, &GPIO_InitStruct);
 8000f70:	f107 0318 	add.w	r3, r7, #24
 8000f74:	4619      	mov	r1, r3
 8000f76:	4824      	ldr	r0, [pc, #144]	; (8001008 <MX_GPIO_Init+0x21c>)
 8000f78:	f001 f8de 	bl	8002138 <HAL_GPIO_Init>

  /*Configure GPIO pins : PB10 PB11 PB12 PB13
                           PB14 PB15 PB8 PB9 */
  GPIO_InitStruct.Pin = GPIO_PIN_10|GPIO_PIN_11|GPIO_PIN_12|GPIO_PIN_13
 8000f7c:	f44f 437f 	mov.w	r3, #65280	; 0xff00
 8000f80:	61bb      	str	r3, [r7, #24]
                          |GPIO_PIN_14|GPIO_PIN_15|GPIO_PIN_8|GPIO_PIN_9;
  GPIO_InitStruct.Mode = GPIO_MODE_INPUT;
 8000f82:	2300      	movs	r3, #0
 8000f84:	61fb      	str	r3, [r7, #28]
  GPIO_InitStruct.Pull = GPIO_NOPULL;
 8000f86:	2300      	movs	r3, #0
 8000f88:	623b      	str	r3, [r7, #32]
  HAL_GPIO_Init(GPIOB, &GPIO_InitStruct);
 8000f8a:	f107 0318 	add.w	r3, r7, #24
 8000f8e:	4619      	mov	r1, r3
 8000f90:	481d      	ldr	r0, [pc, #116]	; (8001008 <MX_GPIO_Init+0x21c>)
 8000f92:	f001 f8d1 	bl	8002138 <HAL_GPIO_Init>

  /*Configure GPIO pins : PD12 PD13 PD3 */
  GPIO_InitStruct.Pin = GPIO_PIN_12|GPIO_PIN_13|GPIO_PIN_3;
 8000f96:	f243 0308 	movw	r3, #12296	; 0x3008
 8000f9a:	61bb      	str	r3, [r7, #24]
  GPIO_InitStruct.Mode = GPIO_MODE_OUTPUT_PP;
 8000f9c:	2301      	movs	r3, #1
 8000f9e:	61fb      	str	r3, [r7, #28]
  GPIO_InitStruct.Pull = GPIO_NOPULL;
 8000fa0:	2300      	movs	r3, #0
 8000fa2:	623b      	str	r3, [r7, #32]
  GPIO_InitStruct.Speed = GPIO_SPEED_FREQ_HIGH;
 8000fa4:	2303      	movs	r3, #3
 8000fa6:	627b      	str	r3, [r7, #36]	; 0x24
  HAL_GPIO_Init(GPIOD, &GPIO_InitStruct);
 8000fa8:	f107 0318 	add.w	r3, r7, #24
 8000fac:	4619      	mov	r1, r3
 8000fae:	4817      	ldr	r0, [pc, #92]	; (800100c <MX_GPIO_Init+0x220>)
 8000fb0:	f001 f8c2 	bl	8002138 <HAL_GPIO_Init>

  /*Configure GPIO pins : PC6 PC7 */
  GPIO_InitStruct.Pin = GPIO_PIN_6|GPIO_PIN_7;
 8000fb4:	23c0      	movs	r3, #192	; 0xc0
 8000fb6:	61bb      	str	r3, [r7, #24]
  GPIO_InitStruct.Mode = GPIO_MODE_OUTPUT_OD;
 8000fb8:	2311      	movs	r3, #17
 8000fba:	61fb      	str	r3, [r7, #28]
  GPIO_InitStruct.Pull = GPIO_NOPULL;
 8000fbc:	2300      	movs	r3, #0
 8000fbe:	623b      	str	r3, [r7, #32]
  GPIO_InitStruct.Speed = GPIO_SPEED_FREQ_HIGH;
 8000fc0:	2303      	movs	r3, #3
 8000fc2:	627b      	str	r3, [r7, #36]	; 0x24
  HAL_GPIO_Init(GPIOC, &GPIO_InitStruct);
 8000fc4:	f107 0318 	add.w	r3, r7, #24
 8000fc8:	4619      	mov	r1, r3
 8000fca:	480e      	ldr	r0, [pc, #56]	; (8001004 <MX_GPIO_Init+0x218>)
 8000fcc:	f001 f8b4 	bl	8002138 <HAL_GPIO_Init>

  /* EXTI interrupt init*/
  HAL_NVIC_SetPriority(EXTI3_IRQn, 0, 0);
 8000fd0:	2200      	movs	r2, #0
 8000fd2:	2100      	movs	r1, #0
 8000fd4:	2009      	movs	r0, #9
 8000fd6:	f001 f878 	bl	80020ca <HAL_NVIC_SetPriority>
  HAL_NVIC_EnableIRQ(EXTI3_IRQn);
 8000fda:	2009      	movs	r0, #9
 8000fdc:	f001 f891 	bl	8002102 <HAL_NVIC_EnableIRQ>

  HAL_NVIC_SetPriority(EXTI4_IRQn, 0, 0);
 8000fe0:	2200      	movs	r2, #0
 8000fe2:	2100      	movs	r1, #0
 8000fe4:	200a      	movs	r0, #10
 8000fe6:	f001 f870 	bl	80020ca <HAL_NVIC_SetPriority>
  HAL_NVIC_EnableIRQ(EXTI4_IRQn);
 8000fea:	200a      	movs	r0, #10
 8000fec:	f001 f889 	bl	8002102 <HAL_NVIC_EnableIRQ>

}
 8000ff0:	bf00      	nop
 8000ff2:	3728      	adds	r7, #40	; 0x28
 8000ff4:	46bd      	mov	sp, r7
 8000ff6:	bd80      	pop	{r7, pc}
 8000ff8:	40021000 	.word	0x40021000
 8000ffc:	40011800 	.word	0x40011800
 8001000:	40010800 	.word	0x40010800
 8001004:	40011000 	.word	0x40011000
 8001008:	40010c00 	.word	0x40010c00
 800100c:	40011400 	.word	0x40011400
 8001010:	10110000 	.word	0x10110000
 8001014:	10210000 	.word	0x10210000

08001018 <Delay>:
void		LCD_FillColor           ( uint32_t ulAmout_Point, uint16_t usColor );
uint16_t	LCD_Read_PixelData      ( void );



void Delay ( __IO uint32_t nCount ){  for ( ; nCount != 0; nCount -- );}
 8001018:	b480      	push	{r7}
 800101a:	b083      	sub	sp, #12
 800101c:	af00      	add	r7, sp, #0
 800101e:	6078      	str	r0, [r7, #4]
 8001020:	e002      	b.n	8001028 <Delay+0x10>
 8001022:	687b      	ldr	r3, [r7, #4]
 8001024:	3b01      	subs	r3, #1
 8001026:	607b      	str	r3, [r7, #4]
 8001028:	687b      	ldr	r3, [r7, #4]
 800102a:	2b00      	cmp	r3, #0
 800102c:	d1f9      	bne.n	8001022 <Delay+0xa>
 800102e:	bf00      	nop
 8001030:	bf00      	nop
 8001032:	370c      	adds	r7, #12
 8001034:	46bd      	mov	sp, r7
 8001036:	bc80      	pop	{r7}
 8001038:	4770      	bx	lr

0800103a <LCD_INIT>:

void LCD_INIT ( void )
{
 800103a:	b580      	push	{r7, lr}
 800103c:	b082      	sub	sp, #8
 800103e:	af02      	add	r7, sp, #8
	LCD_BackLed_Control(ENABLE);      
 8001040:	2001      	movs	r0, #1
 8001042:	f000 f829 	bl	8001098 <LCD_BackLed_Control>
	LCD_Rst();
 8001046:	f000 f80f 	bl	8001068 <LCD_Rst>
	LCD_REG_Config();
 800104a:	f000 f85f 	bl	800110c <LCD_REG_Config>
	LCD_Clear (0, 0, 240, 320, BACKGROUND);
 800104e:	f64f 73ff 	movw	r3, #65535	; 0xffff
 8001052:	9300      	str	r3, [sp, #0]
 8001054:	f44f 73a0 	mov.w	r3, #320	; 0x140
 8001058:	22f0      	movs	r2, #240	; 0xf0
 800105a:	2100      	movs	r1, #0
 800105c:	2000      	movs	r0, #0
 800105e:	f000 f9e6 	bl	800142e <LCD_Clear>
}
 8001062:	bf00      	nop
 8001064:	46bd      	mov	sp, r7
 8001066:	bd80      	pop	{r7, pc}

08001068 <LCD_Rst>:



void LCD_Rst ( void )
{			
 8001068:	b580      	push	{r7, lr}
 800106a:	af00      	add	r7, sp, #0
	HAL_GPIO_WritePin(LCD_RST_PORT,LCD_RST_PIN,GPIO_PIN_RESET);
 800106c:	2200      	movs	r2, #0
 800106e:	2102      	movs	r1, #2
 8001070:	4807      	ldr	r0, [pc, #28]	; (8001090 <LCD_Rst+0x28>)
 8001072:	f001 fa10 	bl	8002496 <HAL_GPIO_WritePin>
	Delay ( 0xAFFf<<2 ); 					   
 8001076:	4807      	ldr	r0, [pc, #28]	; (8001094 <LCD_Rst+0x2c>)
 8001078:	f7ff ffce 	bl	8001018 <Delay>
	HAL_GPIO_WritePin(LCD_RST_PORT,LCD_RST_PIN,GPIO_PIN_SET);
 800107c:	2201      	movs	r2, #1
 800107e:	2102      	movs	r1, #2
 8001080:	4803      	ldr	r0, [pc, #12]	; (8001090 <LCD_Rst+0x28>)
 8001082:	f001 fa08 	bl	8002496 <HAL_GPIO_WritePin>
	Delay ( 0xAFFf<<2 ); 	
 8001086:	4803      	ldr	r0, [pc, #12]	; (8001094 <LCD_Rst+0x2c>)
 8001088:	f7ff ffc6 	bl	8001018 <Delay>
}
 800108c:	bf00      	nop
 800108e:	bd80      	pop	{r7, pc}
 8001090:	40011800 	.word	0x40011800
 8001094:	0002bffc 	.word	0x0002bffc

08001098 <LCD_BackLed_Control>:


void LCD_BackLed_Control ( FunctionalState enumState )
{
 8001098:	b580      	push	{r7, lr}
 800109a:	b082      	sub	sp, #8
 800109c:	af00      	add	r7, sp, #0
 800109e:	4603      	mov	r3, r0
 80010a0:	71fb      	strb	r3, [r7, #7]
	if ( enumState )
 80010a2:	79fb      	ldrb	r3, [r7, #7]
 80010a4:	2b00      	cmp	r3, #0
 80010a6:	d006      	beq.n	80010b6 <LCD_BackLed_Control+0x1e>
		HAL_GPIO_WritePin(LCD_BK_PORT,LCD_BK_PIN,GPIO_PIN_RESET);	
 80010a8:	2200      	movs	r2, #0
 80010aa:	f44f 5180 	mov.w	r1, #4096	; 0x1000
 80010ae:	4807      	ldr	r0, [pc, #28]	; (80010cc <LCD_BackLed_Control+0x34>)
 80010b0:	f001 f9f1 	bl	8002496 <HAL_GPIO_WritePin>
	else
		HAL_GPIO_WritePin(LCD_BK_PORT,LCD_BK_PIN,GPIO_PIN_SET);			
}
 80010b4:	e005      	b.n	80010c2 <LCD_BackLed_Control+0x2a>
		HAL_GPIO_WritePin(LCD_BK_PORT,LCD_BK_PIN,GPIO_PIN_SET);			
 80010b6:	2201      	movs	r2, #1
 80010b8:	f44f 5180 	mov.w	r1, #4096	; 0x1000
 80010bc:	4803      	ldr	r0, [pc, #12]	; (80010cc <LCD_BackLed_Control+0x34>)
 80010be:	f001 f9ea 	bl	8002496 <HAL_GPIO_WritePin>
}
 80010c2:	bf00      	nop
 80010c4:	3708      	adds	r7, #8
 80010c6:	46bd      	mov	sp, r7
 80010c8:	bd80      	pop	{r7, pc}
 80010ca:	bf00      	nop
 80010cc:	40011400 	.word	0x40011400

080010d0 <LCD_Write_Cmd>:




void LCD_Write_Cmd ( uint16_t usCmd )
{
 80010d0:	b480      	push	{r7}
 80010d2:	b083      	sub	sp, #12
 80010d4:	af00      	add	r7, sp, #0
 80010d6:	4603      	mov	r3, r0
 80010d8:	80fb      	strh	r3, [r7, #6]
	* ( __IO uint16_t * ) ( FSMC_Addr_LCD_CMD ) = usCmd;
 80010da:	f04f 42c0 	mov.w	r2, #1610612736	; 0x60000000
 80010de:	88fb      	ldrh	r3, [r7, #6]
 80010e0:	8013      	strh	r3, [r2, #0]
}
 80010e2:	bf00      	nop
 80010e4:	370c      	adds	r7, #12
 80010e6:	46bd      	mov	sp, r7
 80010e8:	bc80      	pop	{r7}
 80010ea:	4770      	bx	lr

080010ec <LCD_Write_Data>:




void LCD_Write_Data ( uint16_t usData )
{
 80010ec:	b480      	push	{r7}
 80010ee:	b083      	sub	sp, #12
 80010f0:	af00      	add	r7, sp, #0
 80010f2:	4603      	mov	r3, r0
 80010f4:	80fb      	strh	r3, [r7, #6]
	* ( __IO uint16_t * ) ( FSMC_Addr_LCD_DATA ) = usData;
 80010f6:	4a04      	ldr	r2, [pc, #16]	; (8001108 <LCD_Write_Data+0x1c>)
 80010f8:	88fb      	ldrh	r3, [r7, #6]
 80010fa:	8013      	strh	r3, [r2, #0]
}
 80010fc:	bf00      	nop
 80010fe:	370c      	adds	r7, #12
 8001100:	46bd      	mov	sp, r7
 8001102:	bc80      	pop	{r7}
 8001104:	4770      	bx	lr
 8001106:	bf00      	nop
 8001108:	60020000 	.word	0x60020000

0800110c <LCD_REG_Config>:
	return ( * ( __IO uint16_t * ) ( FSMC_Addr_LCD_DATA ) );	
}


void LCD_REG_Config ( void )
{
 800110c:	b580      	push	{r7, lr}
 800110e:	af00      	add	r7, sp, #0
	/*  Power control B (CFh)  */
	DEBUG_DELAY  ();
	LCD_Write_Cmd ( 0xCF  );
 8001110:	20cf      	movs	r0, #207	; 0xcf
 8001112:	f7ff ffdd 	bl	80010d0 <LCD_Write_Cmd>
	LCD_Write_Data ( 0x00  );
 8001116:	2000      	movs	r0, #0
 8001118:	f7ff ffe8 	bl	80010ec <LCD_Write_Data>
	LCD_Write_Data ( 0x81  );
 800111c:	2081      	movs	r0, #129	; 0x81
 800111e:	f7ff ffe5 	bl	80010ec <LCD_Write_Data>
	LCD_Write_Data ( 0x30  );
 8001122:	2030      	movs	r0, #48	; 0x30
 8001124:	f7ff ffe2 	bl	80010ec <LCD_Write_Data>
	
	/*  Power on sequence control (EDh) */
	DEBUG_DELAY ();
	LCD_Write_Cmd ( 0xED );
 8001128:	20ed      	movs	r0, #237	; 0xed
 800112a:	f7ff ffd1 	bl	80010d0 <LCD_Write_Cmd>
	LCD_Write_Data ( 0x64 );
 800112e:	2064      	movs	r0, #100	; 0x64
 8001130:	f7ff ffdc 	bl	80010ec <LCD_Write_Data>
	LCD_Write_Data ( 0x03 );
 8001134:	2003      	movs	r0, #3
 8001136:	f7ff ffd9 	bl	80010ec <LCD_Write_Data>
	LCD_Write_Data ( 0x12 );
 800113a:	2012      	movs	r0, #18
 800113c:	f7ff ffd6 	bl	80010ec <LCD_Write_Data>
	LCD_Write_Data ( 0x81 );
 8001140:	2081      	movs	r0, #129	; 0x81
 8001142:	f7ff ffd3 	bl	80010ec <LCD_Write_Data>
	
	/*  Driver timing control A (E8h) */
	DEBUG_DELAY ();
	LCD_Write_Cmd ( 0xE8 );
 8001146:	20e8      	movs	r0, #232	; 0xe8
 8001148:	f7ff ffc2 	bl	80010d0 <LCD_Write_Cmd>
	LCD_Write_Data ( 0x85 );
 800114c:	2085      	movs	r0, #133	; 0x85
 800114e:	f7ff ffcd 	bl	80010ec <LCD_Write_Data>
	LCD_Write_Data ( 0x10 );
 8001152:	2010      	movs	r0, #16
 8001154:	f7ff ffca 	bl	80010ec <LCD_Write_Data>
	LCD_Write_Data ( 0x78 );
 8001158:	2078      	movs	r0, #120	; 0x78
 800115a:	f7ff ffc7 	bl	80010ec <LCD_Write_Data>
	
	/*  Power control A (CBh) */
	DEBUG_DELAY ();
	LCD_Write_Cmd ( 0xCB );
 800115e:	20cb      	movs	r0, #203	; 0xcb
 8001160:	f7ff ffb6 	bl	80010d0 <LCD_Write_Cmd>
	LCD_Write_Data ( 0x39 );
 8001164:	2039      	movs	r0, #57	; 0x39
 8001166:	f7ff ffc1 	bl	80010ec <LCD_Write_Data>
	LCD_Write_Data ( 0x2C );
 800116a:	202c      	movs	r0, #44	; 0x2c
 800116c:	f7ff ffbe 	bl	80010ec <LCD_Write_Data>
	LCD_Write_Data ( 0x00 );
 8001170:	2000      	movs	r0, #0
 8001172:	f7ff ffbb 	bl	80010ec <LCD_Write_Data>
	LCD_Write_Data ( 0x34 );
 8001176:	2034      	movs	r0, #52	; 0x34
 8001178:	f7ff ffb8 	bl	80010ec <LCD_Write_Data>
	LCD_Write_Data ( 0x02 );
 800117c:	2002      	movs	r0, #2
 800117e:	f7ff ffb5 	bl	80010ec <LCD_Write_Data>
	
	/* Pump ratio control (F7h) */
	DEBUG_DELAY ();
	LCD_Write_Cmd ( 0xF7 );
 8001182:	20f7      	movs	r0, #247	; 0xf7
 8001184:	f7ff ffa4 	bl	80010d0 <LCD_Write_Cmd>
	LCD_Write_Data ( 0x20 );
 8001188:	2020      	movs	r0, #32
 800118a:	f7ff ffaf 	bl	80010ec <LCD_Write_Data>
	
	/* Driver timing control B */
	DEBUG_DELAY ();
	LCD_Write_Cmd ( 0xEA );
 800118e:	20ea      	movs	r0, #234	; 0xea
 8001190:	f7ff ff9e 	bl	80010d0 <LCD_Write_Cmd>
	LCD_Write_Data ( 0x00 );
 8001194:	2000      	movs	r0, #0
 8001196:	f7ff ffa9 	bl	80010ec <LCD_Write_Data>
	LCD_Write_Data ( 0x00 );
 800119a:	2000      	movs	r0, #0
 800119c:	f7ff ffa6 	bl	80010ec <LCD_Write_Data>
	
	/* Frame Rate Control (In Normal Mode/Full Colors) (B1h) */
	DEBUG_DELAY ();
	LCD_Write_Cmd ( 0xB1 );
 80011a0:	20b1      	movs	r0, #177	; 0xb1
 80011a2:	f7ff ff95 	bl	80010d0 <LCD_Write_Cmd>
	LCD_Write_Data ( 0x00 );
 80011a6:	2000      	movs	r0, #0
 80011a8:	f7ff ffa0 	bl	80010ec <LCD_Write_Data>
	LCD_Write_Data ( 0x1B );
 80011ac:	201b      	movs	r0, #27
 80011ae:	f7ff ff9d 	bl	80010ec <LCD_Write_Data>
	
	/*  Display Function Control (B6h) */
	DEBUG_DELAY ();
	LCD_Write_Cmd ( 0xB6 );
 80011b2:	20b6      	movs	r0, #182	; 0xb6
 80011b4:	f7ff ff8c 	bl	80010d0 <LCD_Write_Cmd>
	LCD_Write_Data ( 0x0A );
 80011b8:	200a      	movs	r0, #10
 80011ba:	f7ff ff97 	bl	80010ec <LCD_Write_Data>
	LCD_Write_Data ( 0xA2 );
 80011be:	20a2      	movs	r0, #162	; 0xa2
 80011c0:	f7ff ff94 	bl	80010ec <LCD_Write_Data>
	
	/* Power Control 1 (C0h) */
	DEBUG_DELAY ();
	LCD_Write_Cmd ( 0xC0 );
 80011c4:	20c0      	movs	r0, #192	; 0xc0
 80011c6:	f7ff ff83 	bl	80010d0 <LCD_Write_Cmd>
	LCD_Write_Data ( 0x35 );
 80011ca:	2035      	movs	r0, #53	; 0x35
 80011cc:	f7ff ff8e 	bl	80010ec <LCD_Write_Data>
	
	/* Power Control 2 (C1h) */
	DEBUG_DELAY ();
	LCD_Write_Cmd ( 0xC1 );
 80011d0:	20c1      	movs	r0, #193	; 0xc1
 80011d2:	f7ff ff7d 	bl	80010d0 <LCD_Write_Cmd>
	LCD_Write_Data ( 0x11 );
 80011d6:	2011      	movs	r0, #17
 80011d8:	f7ff ff88 	bl	80010ec <LCD_Write_Data>
	
	/* VCOM Control 1 (C5h) */
	LCD_Write_Cmd ( 0xC5 );
 80011dc:	20c5      	movs	r0, #197	; 0xc5
 80011de:	f7ff ff77 	bl	80010d0 <LCD_Write_Cmd>
	LCD_Write_Data ( 0x45 );
 80011e2:	2045      	movs	r0, #69	; 0x45
 80011e4:	f7ff ff82 	bl	80010ec <LCD_Write_Data>
	LCD_Write_Data ( 0x45 );
 80011e8:	2045      	movs	r0, #69	; 0x45
 80011ea:	f7ff ff7f 	bl	80010ec <LCD_Write_Data>
	
	/*  VCOM Control 2 (C7h)  */
	LCD_Write_Cmd ( 0xC7 );
 80011ee:	20c7      	movs	r0, #199	; 0xc7
 80011f0:	f7ff ff6e 	bl	80010d0 <LCD_Write_Cmd>
	LCD_Write_Data ( 0xA2 );
 80011f4:	20a2      	movs	r0, #162	; 0xa2
 80011f6:	f7ff ff79 	bl	80010ec <LCD_Write_Data>
	
	/* Enable 3G (F2h) */
	LCD_Write_Cmd ( 0xF2 );
 80011fa:	20f2      	movs	r0, #242	; 0xf2
 80011fc:	f7ff ff68 	bl	80010d0 <LCD_Write_Cmd>
	LCD_Write_Data ( 0x00 );
 8001200:	2000      	movs	r0, #0
 8001202:	f7ff ff73 	bl	80010ec <LCD_Write_Data>
	
	/* Gamma Set (26h) */
	LCD_Write_Cmd ( 0x26 );
 8001206:	2026      	movs	r0, #38	; 0x26
 8001208:	f7ff ff62 	bl	80010d0 <LCD_Write_Cmd>
	LCD_Write_Data ( 0x01 );
 800120c:	2001      	movs	r0, #1
 800120e:	f7ff ff6d 	bl	80010ec <LCD_Write_Data>
	DEBUG_DELAY ();
	
	/* Positive Gamma Correction */
	LCD_Write_Cmd ( 0xE0 ); //Set Gamma
 8001212:	20e0      	movs	r0, #224	; 0xe0
 8001214:	f7ff ff5c 	bl	80010d0 <LCD_Write_Cmd>
	LCD_Write_Data ( 0x0F );
 8001218:	200f      	movs	r0, #15
 800121a:	f7ff ff67 	bl	80010ec <LCD_Write_Data>
	LCD_Write_Data ( 0x26 );
 800121e:	2026      	movs	r0, #38	; 0x26
 8001220:	f7ff ff64 	bl	80010ec <LCD_Write_Data>
	LCD_Write_Data ( 0x24 );
 8001224:	2024      	movs	r0, #36	; 0x24
 8001226:	f7ff ff61 	bl	80010ec <LCD_Write_Data>
	LCD_Write_Data ( 0x0B );
 800122a:	200b      	movs	r0, #11
 800122c:	f7ff ff5e 	bl	80010ec <LCD_Write_Data>
	LCD_Write_Data ( 0x0E );
 8001230:	200e      	movs	r0, #14
 8001232:	f7ff ff5b 	bl	80010ec <LCD_Write_Data>
	LCD_Write_Data ( 0x09 );
 8001236:	2009      	movs	r0, #9
 8001238:	f7ff ff58 	bl	80010ec <LCD_Write_Data>
	LCD_Write_Data ( 0x54 );
 800123c:	2054      	movs	r0, #84	; 0x54
 800123e:	f7ff ff55 	bl	80010ec <LCD_Write_Data>
	LCD_Write_Data ( 0xA8 );
 8001242:	20a8      	movs	r0, #168	; 0xa8
 8001244:	f7ff ff52 	bl	80010ec <LCD_Write_Data>
	LCD_Write_Data ( 0x46 );
 8001248:	2046      	movs	r0, #70	; 0x46
 800124a:	f7ff ff4f 	bl	80010ec <LCD_Write_Data>
	LCD_Write_Data ( 0x0C );
 800124e:	200c      	movs	r0, #12
 8001250:	f7ff ff4c 	bl	80010ec <LCD_Write_Data>
	LCD_Write_Data ( 0x17 );
 8001254:	2017      	movs	r0, #23
 8001256:	f7ff ff49 	bl	80010ec <LCD_Write_Data>
	LCD_Write_Data ( 0x09 );
 800125a:	2009      	movs	r0, #9
 800125c:	f7ff ff46 	bl	80010ec <LCD_Write_Data>
	LCD_Write_Data ( 0x0F );
 8001260:	200f      	movs	r0, #15
 8001262:	f7ff ff43 	bl	80010ec <LCD_Write_Data>
	LCD_Write_Data ( 0x07 );
 8001266:	2007      	movs	r0, #7
 8001268:	f7ff ff40 	bl	80010ec <LCD_Write_Data>
	LCD_Write_Data ( 0x00 );
 800126c:	2000      	movs	r0, #0
 800126e:	f7ff ff3d 	bl	80010ec <LCD_Write_Data>
	
	/* Negative Gamma Correction (E1h) */
	LCD_Write_Cmd ( 0XE1 ); //Set Gamma
 8001272:	20e1      	movs	r0, #225	; 0xe1
 8001274:	f7ff ff2c 	bl	80010d0 <LCD_Write_Cmd>
	LCD_Write_Data ( 0x00 );
 8001278:	2000      	movs	r0, #0
 800127a:	f7ff ff37 	bl	80010ec <LCD_Write_Data>
	LCD_Write_Data ( 0x19 );
 800127e:	2019      	movs	r0, #25
 8001280:	f7ff ff34 	bl	80010ec <LCD_Write_Data>
	LCD_Write_Data ( 0x1B );
 8001284:	201b      	movs	r0, #27
 8001286:	f7ff ff31 	bl	80010ec <LCD_Write_Data>
	LCD_Write_Data ( 0x04 );
 800128a:	2004      	movs	r0, #4
 800128c:	f7ff ff2e 	bl	80010ec <LCD_Write_Data>
	LCD_Write_Data ( 0x10 );
 8001290:	2010      	movs	r0, #16
 8001292:	f7ff ff2b 	bl	80010ec <LCD_Write_Data>
	LCD_Write_Data ( 0x07 );
 8001296:	2007      	movs	r0, #7
 8001298:	f7ff ff28 	bl	80010ec <LCD_Write_Data>
	LCD_Write_Data ( 0x2A );
 800129c:	202a      	movs	r0, #42	; 0x2a
 800129e:	f7ff ff25 	bl	80010ec <LCD_Write_Data>
	LCD_Write_Data ( 0x47 );
 80012a2:	2047      	movs	r0, #71	; 0x47
 80012a4:	f7ff ff22 	bl	80010ec <LCD_Write_Data>
	LCD_Write_Data ( 0x39 );
 80012a8:	2039      	movs	r0, #57	; 0x39
 80012aa:	f7ff ff1f 	bl	80010ec <LCD_Write_Data>
	LCD_Write_Data ( 0x03 );
 80012ae:	2003      	movs	r0, #3
 80012b0:	f7ff ff1c 	bl	80010ec <LCD_Write_Data>
	LCD_Write_Data ( 0x06 );
 80012b4:	2006      	movs	r0, #6
 80012b6:	f7ff ff19 	bl	80010ec <LCD_Write_Data>
	LCD_Write_Data ( 0x06 );
 80012ba:	2006      	movs	r0, #6
 80012bc:	f7ff ff16 	bl	80010ec <LCD_Write_Data>
	LCD_Write_Data ( 0x30 );
 80012c0:	2030      	movs	r0, #48	; 0x30
 80012c2:	f7ff ff13 	bl	80010ec <LCD_Write_Data>
	LCD_Write_Data ( 0x38 );
 80012c6:	2038      	movs	r0, #56	; 0x38
 80012c8:	f7ff ff10 	bl	80010ec <LCD_Write_Data>
	LCD_Write_Data ( 0x0F );
 80012cc:	200f      	movs	r0, #15
 80012ce:	f7ff ff0d 	bl	80010ec <LCD_Write_Data>
	
	/* memory access control set */
	DEBUG_DELAY ();
	LCD_Write_Cmd ( 0x36 ); 	
 80012d2:	2036      	movs	r0, #54	; 0x36
 80012d4:	f7ff fefc 	bl	80010d0 <LCD_Write_Cmd>
	LCD_Write_Data ( 0xC8 );    
 80012d8:	20c8      	movs	r0, #200	; 0xc8
 80012da:	f7ff ff07 	bl	80010ec <LCD_Write_Data>
	DEBUG_DELAY ();
	
	/* column address control set */
	LCD_Write_Cmd ( CMD_Set_COLUMN ); 
 80012de:	202a      	movs	r0, #42	; 0x2a
 80012e0:	f7ff fef6 	bl	80010d0 <LCD_Write_Cmd>
	LCD_Write_Data ( 0x00 );
 80012e4:	2000      	movs	r0, #0
 80012e6:	f7ff ff01 	bl	80010ec <LCD_Write_Data>
	LCD_Write_Data ( 0x00 );
 80012ea:	2000      	movs	r0, #0
 80012ec:	f7ff fefe 	bl	80010ec <LCD_Write_Data>
	LCD_Write_Data ( 0x00 );
 80012f0:	2000      	movs	r0, #0
 80012f2:	f7ff fefb 	bl	80010ec <LCD_Write_Data>
	LCD_Write_Data ( 0xEF );
 80012f6:	20ef      	movs	r0, #239	; 0xef
 80012f8:	f7ff fef8 	bl	80010ec <LCD_Write_Data>
	
	/* page address control set */
	DEBUG_DELAY ();
	LCD_Write_Cmd ( CMD_Set_PAGE ); 
 80012fc:	202b      	movs	r0, #43	; 0x2b
 80012fe:	f7ff fee7 	bl	80010d0 <LCD_Write_Cmd>
	LCD_Write_Data ( 0x00 );
 8001302:	2000      	movs	r0, #0
 8001304:	f7ff fef2 	bl	80010ec <LCD_Write_Data>
	LCD_Write_Data ( 0x00 );
 8001308:	2000      	movs	r0, #0
 800130a:	f7ff feef 	bl	80010ec <LCD_Write_Data>
	LCD_Write_Data ( 0x01 );
 800130e:	2001      	movs	r0, #1
 8001310:	f7ff feec 	bl	80010ec <LCD_Write_Data>
	LCD_Write_Data ( 0x3F );
 8001314:	203f      	movs	r0, #63	; 0x3f
 8001316:	f7ff fee9 	bl	80010ec <LCD_Write_Data>
	
	/*  Pixel Format Set (3Ah)  */
	DEBUG_DELAY ();
	LCD_Write_Cmd ( 0x3a ); 
 800131a:	203a      	movs	r0, #58	; 0x3a
 800131c:	f7ff fed8 	bl	80010d0 <LCD_Write_Cmd>
	LCD_Write_Data ( 0x55 );
 8001320:	2055      	movs	r0, #85	; 0x55
 8001322:	f7ff fee3 	bl	80010ec <LCD_Write_Data>
	
	/* Sleep Out (11h)  */
	LCD_Write_Cmd ( 0x11 );	
 8001326:	2011      	movs	r0, #17
 8001328:	f7ff fed2 	bl	80010d0 <LCD_Write_Cmd>
	Delay ( 0xAFFf<<2 );
 800132c:	4803      	ldr	r0, [pc, #12]	; (800133c <LCD_REG_Config+0x230>)
 800132e:	f7ff fe73 	bl	8001018 <Delay>
	DEBUG_DELAY ();
	
	/* Display ON (29h) */
	LCD_Write_Cmd ( 0x29 ); 
 8001332:	2029      	movs	r0, #41	; 0x29
 8001334:	f7ff fecc 	bl	80010d0 <LCD_Write_Cmd>
	
	
}
 8001338:	bf00      	nop
 800133a:	bd80      	pop	{r7, pc}
 800133c:	0002bffc 	.word	0x0002bffc

08001340 <LCD_OpenWindow>:



void LCD_OpenWindow ( uint16_t usCOLUMN, uint16_t usPAGE, uint16_t usWidth, uint16_t usHeight )
{	
 8001340:	b590      	push	{r4, r7, lr}
 8001342:	b083      	sub	sp, #12
 8001344:	af00      	add	r7, sp, #0
 8001346:	4604      	mov	r4, r0
 8001348:	4608      	mov	r0, r1
 800134a:	4611      	mov	r1, r2
 800134c:	461a      	mov	r2, r3
 800134e:	4623      	mov	r3, r4
 8001350:	80fb      	strh	r3, [r7, #6]
 8001352:	4603      	mov	r3, r0
 8001354:	80bb      	strh	r3, [r7, #4]
 8001356:	460b      	mov	r3, r1
 8001358:	807b      	strh	r3, [r7, #2]
 800135a:	4613      	mov	r3, r2
 800135c:	803b      	strh	r3, [r7, #0]
	LCD_Write_Cmd ( CMD_Set_COLUMN ); 				
 800135e:	202a      	movs	r0, #42	; 0x2a
 8001360:	f7ff feb6 	bl	80010d0 <LCD_Write_Cmd>
	LCD_Write_Data ( usCOLUMN >> 8  );	 
 8001364:	88fb      	ldrh	r3, [r7, #6]
 8001366:	0a1b      	lsrs	r3, r3, #8
 8001368:	b29b      	uxth	r3, r3
 800136a:	4618      	mov	r0, r3
 800136c:	f7ff febe 	bl	80010ec <LCD_Write_Data>
	LCD_Write_Data ( usCOLUMN & 0xff  );	 
 8001370:	88fb      	ldrh	r3, [r7, #6]
 8001372:	b2db      	uxtb	r3, r3
 8001374:	b29b      	uxth	r3, r3
 8001376:	4618      	mov	r0, r3
 8001378:	f7ff feb8 	bl	80010ec <LCD_Write_Data>
	LCD_Write_Data ( ( usCOLUMN + usWidth - 1 ) >> 8  );
 800137c:	88fa      	ldrh	r2, [r7, #6]
 800137e:	887b      	ldrh	r3, [r7, #2]
 8001380:	4413      	add	r3, r2
 8001382:	3b01      	subs	r3, #1
 8001384:	121b      	asrs	r3, r3, #8
 8001386:	b29b      	uxth	r3, r3
 8001388:	4618      	mov	r0, r3
 800138a:	f7ff feaf 	bl	80010ec <LCD_Write_Data>
	LCD_Write_Data ( ( usCOLUMN + usWidth - 1 ) & 0xff  );
 800138e:	88fa      	ldrh	r2, [r7, #6]
 8001390:	887b      	ldrh	r3, [r7, #2]
 8001392:	4413      	add	r3, r2
 8001394:	b29b      	uxth	r3, r3
 8001396:	3b01      	subs	r3, #1
 8001398:	b29b      	uxth	r3, r3
 800139a:	b2db      	uxtb	r3, r3
 800139c:	b29b      	uxth	r3, r3
 800139e:	4618      	mov	r0, r3
 80013a0:	f7ff fea4 	bl	80010ec <LCD_Write_Data>

	LCD_Write_Cmd ( CMD_Set_PAGE ); 			     
 80013a4:	202b      	movs	r0, #43	; 0x2b
 80013a6:	f7ff fe93 	bl	80010d0 <LCD_Write_Cmd>
	LCD_Write_Data ( usPAGE >> 8  );
 80013aa:	88bb      	ldrh	r3, [r7, #4]
 80013ac:	0a1b      	lsrs	r3, r3, #8
 80013ae:	b29b      	uxth	r3, r3
 80013b0:	4618      	mov	r0, r3
 80013b2:	f7ff fe9b 	bl	80010ec <LCD_Write_Data>
	LCD_Write_Data ( usPAGE & 0xff  );
 80013b6:	88bb      	ldrh	r3, [r7, #4]
 80013b8:	b2db      	uxtb	r3, r3
 80013ba:	b29b      	uxth	r3, r3
 80013bc:	4618      	mov	r0, r3
 80013be:	f7ff fe95 	bl	80010ec <LCD_Write_Data>
	LCD_Write_Data ( ( usPAGE + usHeight - 1 ) >> 8 );
 80013c2:	88ba      	ldrh	r2, [r7, #4]
 80013c4:	883b      	ldrh	r3, [r7, #0]
 80013c6:	4413      	add	r3, r2
 80013c8:	3b01      	subs	r3, #1
 80013ca:	121b      	asrs	r3, r3, #8
 80013cc:	b29b      	uxth	r3, r3
 80013ce:	4618      	mov	r0, r3
 80013d0:	f7ff fe8c 	bl	80010ec <LCD_Write_Data>
	LCD_Write_Data ( ( usPAGE + usHeight - 1) & 0xff );
 80013d4:	88ba      	ldrh	r2, [r7, #4]
 80013d6:	883b      	ldrh	r3, [r7, #0]
 80013d8:	4413      	add	r3, r2
 80013da:	b29b      	uxth	r3, r3
 80013dc:	3b01      	subs	r3, #1
 80013de:	b29b      	uxth	r3, r3
 80013e0:	b2db      	uxtb	r3, r3
 80013e2:	b29b      	uxth	r3, r3
 80013e4:	4618      	mov	r0, r3
 80013e6:	f7ff fe81 	bl	80010ec <LCD_Write_Data>
	
}
 80013ea:	bf00      	nop
 80013ec:	370c      	adds	r7, #12
 80013ee:	46bd      	mov	sp, r7
 80013f0:	bd90      	pop	{r4, r7, pc}

080013f2 <LCD_FillColor>:


void LCD_FillColor ( uint32_t usPoint, uint16_t usColor )
{
 80013f2:	b580      	push	{r7, lr}
 80013f4:	b084      	sub	sp, #16
 80013f6:	af00      	add	r7, sp, #0
 80013f8:	6078      	str	r0, [r7, #4]
 80013fa:	460b      	mov	r3, r1
 80013fc:	807b      	strh	r3, [r7, #2]
	uint32_t i = 0;
 80013fe:	2300      	movs	r3, #0
 8001400:	60fb      	str	r3, [r7, #12]
	
	/* memory write */
	LCD_Write_Cmd ( CMD_SetPixel );	
 8001402:	202c      	movs	r0, #44	; 0x2c
 8001404:	f7ff fe64 	bl	80010d0 <LCD_Write_Cmd>
		
	for ( i = 0; i < usPoint; i ++ )
 8001408:	2300      	movs	r3, #0
 800140a:	60fb      	str	r3, [r7, #12]
 800140c:	e006      	b.n	800141c <LCD_FillColor+0x2a>
		LCD_Write_Data ( usColor );
 800140e:	887b      	ldrh	r3, [r7, #2]
 8001410:	4618      	mov	r0, r3
 8001412:	f7ff fe6b 	bl	80010ec <LCD_Write_Data>
	for ( i = 0; i < usPoint; i ++ )
 8001416:	68fb      	ldr	r3, [r7, #12]
 8001418:	3301      	adds	r3, #1
 800141a:	60fb      	str	r3, [r7, #12]
 800141c:	68fa      	ldr	r2, [r7, #12]
 800141e:	687b      	ldr	r3, [r7, #4]
 8001420:	429a      	cmp	r2, r3
 8001422:	d3f4      	bcc.n	800140e <LCD_FillColor+0x1c>
		
}
 8001424:	bf00      	nop
 8001426:	bf00      	nop
 8001428:	3710      	adds	r7, #16
 800142a:	46bd      	mov	sp, r7
 800142c:	bd80      	pop	{r7, pc}

0800142e <LCD_Clear>:




void LCD_Clear ( uint16_t usCOLUMN, uint16_t usPAGE, uint16_t usWidth, uint16_t usHeight, uint16_t usColor )
{
 800142e:	b590      	push	{r4, r7, lr}
 8001430:	b083      	sub	sp, #12
 8001432:	af00      	add	r7, sp, #0
 8001434:	4604      	mov	r4, r0
 8001436:	4608      	mov	r0, r1
 8001438:	4611      	mov	r1, r2
 800143a:	461a      	mov	r2, r3
 800143c:	4623      	mov	r3, r4
 800143e:	80fb      	strh	r3, [r7, #6]
 8001440:	4603      	mov	r3, r0
 8001442:	80bb      	strh	r3, [r7, #4]
 8001444:	460b      	mov	r3, r1
 8001446:	807b      	strh	r3, [r7, #2]
 8001448:	4613      	mov	r3, r2
 800144a:	803b      	strh	r3, [r7, #0]
	LCD_OpenWindow ( usCOLUMN, usPAGE, usWidth, usHeight );
 800144c:	883b      	ldrh	r3, [r7, #0]
 800144e:	887a      	ldrh	r2, [r7, #2]
 8001450:	88b9      	ldrh	r1, [r7, #4]
 8001452:	88f8      	ldrh	r0, [r7, #6]
 8001454:	f7ff ff74 	bl	8001340 <LCD_OpenWindow>

	LCD_FillColor ( usWidth * usHeight, usColor );		
 8001458:	887b      	ldrh	r3, [r7, #2]
 800145a:	883a      	ldrh	r2, [r7, #0]
 800145c:	fb02 f303 	mul.w	r3, r2, r3
 8001460:	461a      	mov	r2, r3
 8001462:	8b3b      	ldrh	r3, [r7, #24]
 8001464:	4619      	mov	r1, r3
 8001466:	4610      	mov	r0, r2
 8001468:	f7ff ffc3 	bl	80013f2 <LCD_FillColor>
	
}
 800146c:	bf00      	nop
 800146e:	370c      	adds	r7, #12
 8001470:	46bd      	mov	sp, r7
 8001472:	bd90      	pop	{r4, r7, pc}

08001474 <LCD_DrawChar>:
	
}   


void LCD_DrawChar ( uint16_t usC, uint16_t usP, uint8_t cChar )
{
 8001474:	b580      	push	{r7, lr}
 8001476:	b084      	sub	sp, #16
 8001478:	af00      	add	r7, sp, #0
 800147a:	4603      	mov	r3, r0
 800147c:	80fb      	strh	r3, [r7, #6]
 800147e:	460b      	mov	r3, r1
 8001480:	80bb      	strh	r3, [r7, #4]
 8001482:	4613      	mov	r3, r2
 8001484:	70fb      	strb	r3, [r7, #3]
	uint8_t ucTemp, ucRelativePositon, ucPage, ucColumn;

	
	ucRelativePositon = cChar - ' ';
 8001486:	78fb      	ldrb	r3, [r7, #3]
 8001488:	3b20      	subs	r3, #32
 800148a:	733b      	strb	r3, [r7, #12]
	
	LCD_OpenWindow ( usC, usP, WIDTH_EN_CHAR, HEIGHT_EN_CHAR );
 800148c:	88b9      	ldrh	r1, [r7, #4]
 800148e:	88f8      	ldrh	r0, [r7, #6]
 8001490:	2310      	movs	r3, #16
 8001492:	2208      	movs	r2, #8
 8001494:	f7ff ff54 	bl	8001340 <LCD_OpenWindow>
	
	LCD_Write_Cmd ( CMD_SetPixel );	
 8001498:	202c      	movs	r0, #44	; 0x2c
 800149a:	f7ff fe19 	bl	80010d0 <LCD_Write_Cmd>
	
	for ( ucPage = 0; ucPage < HEIGHT_EN_CHAR; ucPage ++ )
 800149e:	2300      	movs	r3, #0
 80014a0:	73bb      	strb	r3, [r7, #14]
 80014a2:	e023      	b.n	80014ec <LCD_DrawChar+0x78>
	{
		ucTemp = ucAscii_1608 [ ucRelativePositon ] [ ucPage ];
 80014a4:	7b3a      	ldrb	r2, [r7, #12]
 80014a6:	7bbb      	ldrb	r3, [r7, #14]
 80014a8:	4914      	ldr	r1, [pc, #80]	; (80014fc <LCD_DrawChar+0x88>)
 80014aa:	0112      	lsls	r2, r2, #4
 80014ac:	440a      	add	r2, r1
 80014ae:	4413      	add	r3, r2
 80014b0:	781b      	ldrb	r3, [r3, #0]
 80014b2:	73fb      	strb	r3, [r7, #15]
		
		for ( ucColumn = 0; ucColumn < WIDTH_EN_CHAR; ucColumn ++ )
 80014b4:	2300      	movs	r3, #0
 80014b6:	737b      	strb	r3, [r7, #13]
 80014b8:	e012      	b.n	80014e0 <LCD_DrawChar+0x6c>
		{
			if ( ucTemp & 0x01 )
 80014ba:	7bfb      	ldrb	r3, [r7, #15]
 80014bc:	f003 0301 	and.w	r3, r3, #1
 80014c0:	2b00      	cmp	r3, #0
 80014c2:	d003      	beq.n	80014cc <LCD_DrawChar+0x58>
				LCD_Write_Data ( 0x001F );
 80014c4:	201f      	movs	r0, #31
 80014c6:	f7ff fe11 	bl	80010ec <LCD_Write_Data>
 80014ca:	e003      	b.n	80014d4 <LCD_DrawChar+0x60>
			
			else
				LCD_Write_Data (  0xFFFF );								
 80014cc:	f64f 70ff 	movw	r0, #65535	; 0xffff
 80014d0:	f7ff fe0c 	bl	80010ec <LCD_Write_Data>
			
			ucTemp >>= 1;		
 80014d4:	7bfb      	ldrb	r3, [r7, #15]
 80014d6:	085b      	lsrs	r3, r3, #1
 80014d8:	73fb      	strb	r3, [r7, #15]
		for ( ucColumn = 0; ucColumn < WIDTH_EN_CHAR; ucColumn ++ )
 80014da:	7b7b      	ldrb	r3, [r7, #13]
 80014dc:	3301      	adds	r3, #1
 80014de:	737b      	strb	r3, [r7, #13]
 80014e0:	7b7b      	ldrb	r3, [r7, #13]
 80014e2:	2b07      	cmp	r3, #7
 80014e4:	d9e9      	bls.n	80014ba <LCD_DrawChar+0x46>
	for ( ucPage = 0; ucPage < HEIGHT_EN_CHAR; ucPage ++ )
 80014e6:	7bbb      	ldrb	r3, [r7, #14]
 80014e8:	3301      	adds	r3, #1
 80014ea:	73bb      	strb	r3, [r7, #14]
 80014ec:	7bbb      	ldrb	r3, [r7, #14]
 80014ee:	2b0f      	cmp	r3, #15
 80014f0:	d9d8      	bls.n	80014a4 <LCD_DrawChar+0x30>
			
		}
		
	}
	
}
 80014f2:	bf00      	nop
 80014f4:	bf00      	nop
 80014f6:	3710      	adds	r7, #16
 80014f8:	46bd      	mov	sp, r7
 80014fa:	bd80      	pop	{r7, pc}
 80014fc:	08003614 	.word	0x08003614

08001500 <LCD_DrawString>:




void LCD_DrawString ( uint16_t usC, uint16_t usP, uint8_t * pStr )
{
 8001500:	b580      	push	{r7, lr}
 8001502:	b082      	sub	sp, #8
 8001504:	af00      	add	r7, sp, #0
 8001506:	4603      	mov	r3, r0
 8001508:	603a      	str	r2, [r7, #0]
 800150a:	80fb      	strh	r3, [r7, #6]
 800150c:	460b      	mov	r3, r1
 800150e:	80bb      	strh	r3, [r7, #4]
	while ( * pStr != '\0' )
 8001510:	e01c      	b.n	800154c <LCD_DrawString+0x4c>
	{
		if ( ( usC - LCD_DispWindow_Start_COLUMN + WIDTH_EN_CHAR ) > LCD_DispWindow_COLUMN )
 8001512:	88fb      	ldrh	r3, [r7, #6]
 8001514:	2be8      	cmp	r3, #232	; 0xe8
 8001516:	d904      	bls.n	8001522 <LCD_DrawString+0x22>
		{
			usC = LCD_DispWindow_Start_COLUMN;
 8001518:	2300      	movs	r3, #0
 800151a:	80fb      	strh	r3, [r7, #6]
			usP += HEIGHT_EN_CHAR;
 800151c:	88bb      	ldrh	r3, [r7, #4]
 800151e:	3310      	adds	r3, #16
 8001520:	80bb      	strh	r3, [r7, #4]
		}
		
		if ( ( usP - LCD_DispWindow_Start_PAGE + HEIGHT_EN_CHAR ) > LCD_DispWindow_PAGE )
 8001522:	88bb      	ldrh	r3, [r7, #4]
 8001524:	f5b3 7f98 	cmp.w	r3, #304	; 0x130
 8001528:	d903      	bls.n	8001532 <LCD_DrawString+0x32>
		{
			usC = LCD_DispWindow_Start_COLUMN;
 800152a:	2300      	movs	r3, #0
 800152c:	80fb      	strh	r3, [r7, #6]
			usP = LCD_DispWindow_Start_PAGE;
 800152e:	2300      	movs	r3, #0
 8001530:	80bb      	strh	r3, [r7, #4]
		}
		
		LCD_DrawChar ( usC, usP, * pStr );
 8001532:	683b      	ldr	r3, [r7, #0]
 8001534:	781a      	ldrb	r2, [r3, #0]
 8001536:	88b9      	ldrh	r1, [r7, #4]
 8001538:	88fb      	ldrh	r3, [r7, #6]
 800153a:	4618      	mov	r0, r3
 800153c:	f7ff ff9a 	bl	8001474 <LCD_DrawChar>
		
		pStr ++;
 8001540:	683b      	ldr	r3, [r7, #0]
 8001542:	3301      	adds	r3, #1
 8001544:	603b      	str	r3, [r7, #0]
		
		usC += WIDTH_EN_CHAR;
 8001546:	88fb      	ldrh	r3, [r7, #6]
 8001548:	3308      	adds	r3, #8
 800154a:	80fb      	strh	r3, [r7, #6]
	while ( * pStr != '\0' )
 800154c:	683b      	ldr	r3, [r7, #0]
 800154e:	781b      	ldrb	r3, [r3, #0]
 8001550:	2b00      	cmp	r3, #0
 8001552:	d1de      	bne.n	8001512 <LCD_DrawString+0x12>
		
	}
	
}
 8001554:	bf00      	nop
 8001556:	bf00      	nop
 8001558:	3708      	adds	r7, #8
 800155a:	46bd      	mov	sp, r7
 800155c:	bd80      	pop	{r7, pc}
	...

08001560 <main>:
/**
  * @brief  The application entry point.
  * @retval int
  */
int main(void)
{
 8001560:	b580      	push	{r7, lr}
 8001562:	b082      	sub	sp, #8
 8001564:	af00      	add	r7, sp, #0
  /* USER CODE END 1 */

  /* MCU Configuration--------------------------------------------------------*/

  /* Reset of all peripherals, Initializes the Flash interface and the Systick. */
  HAL_Init();
 8001566:	f000 fc57 	bl	8001e18 <HAL_Init>
  /* USER CODE BEGIN Init */

  /* USER CODE END Init */

  /* Configure the system clock */
  SystemClock_Config();
 800156a:	f000 f823 	bl	80015b4 <SystemClock_Config>
  /* USER CODE BEGIN SysInit */

  /* USER CODE END SysInit */

  /* Initialize all configured peripherals */
  MX_GPIO_Init();
 800156e:	f7ff fc3d 	bl	8000dec <MX_GPIO_Init>
  MX_FSMC_Init();
 8001572:	f7ff fb89 	bl	8000c88 <MX_FSMC_Init>
  MX_USART1_UART_Init();
 8001576:	f000 fb39 	bl	8001bec <MX_USART1_UART_Init>
  MX_USART3_UART_Init();
 800157a:	f000 fb61 	bl	8001c40 <MX_USART3_UART_Init>
  /* USER CODE BEGIN 2 */
  LCD_INIT();
 800157e:	f7ff fd5c 	bl	800103a <LCD_INIT>
		
    /* USER CODE END WHILE */

    /* USER CODE BEGIN 3 */
	  char input[5];
	  HAL_UART_Receive(&huart3, input, sizeof(input), 0xFFFF);
 8001582:	4639      	mov	r1, r7
 8001584:	f64f 73ff 	movw	r3, #65535	; 0xffff
 8001588:	2205      	movs	r2, #5
 800158a:	4808      	ldr	r0, [pc, #32]	; (80015ac <main+0x4c>)
 800158c:	f001 fd08 	bl	8002fa0 <HAL_UART_Receive>
	  HAL_UART_Transmit(&huart1, input, sizeof(input), 0xFFFF);
 8001590:	4639      	mov	r1, r7
 8001592:	f64f 73ff 	movw	r3, #65535	; 0xffff
 8001596:	2205      	movs	r2, #5
 8001598:	4805      	ldr	r0, [pc, #20]	; (80015b0 <main+0x50>)
 800159a:	f001 fc68 	bl	8002e6e <HAL_UART_Transmit>
	  mode(input[4]-'1'+1);
 800159e:	793b      	ldrb	r3, [r7, #4]
 80015a0:	3b30      	subs	r3, #48	; 0x30
 80015a2:	4618      	mov	r0, r3
 80015a4:	f000 f852 	bl	800164c <mode>
  {
 80015a8:	e7eb      	b.n	8001582 <main+0x22>
 80015aa:	bf00      	nop
 80015ac:	20000150 	.word	0x20000150
 80015b0:	20000110 	.word	0x20000110

080015b4 <SystemClock_Config>:
/**
  * @brief System Clock Configuration
  * @retval None
  */
void SystemClock_Config(void)
{
 80015b4:	b580      	push	{r7, lr}
 80015b6:	b090      	sub	sp, #64	; 0x40
 80015b8:	af00      	add	r7, sp, #0
  RCC_OscInitTypeDef RCC_OscInitStruct = {0};
 80015ba:	f107 0318 	add.w	r3, r7, #24
 80015be:	2228      	movs	r2, #40	; 0x28
 80015c0:	2100      	movs	r1, #0
 80015c2:	4618      	mov	r0, r3
 80015c4:	f001 ffe0 	bl	8003588 <memset>
  RCC_ClkInitTypeDef RCC_ClkInitStruct = {0};
 80015c8:	1d3b      	adds	r3, r7, #4
 80015ca:	2200      	movs	r2, #0
 80015cc:	601a      	str	r2, [r3, #0]
 80015ce:	605a      	str	r2, [r3, #4]
 80015d0:	609a      	str	r2, [r3, #8]
 80015d2:	60da      	str	r2, [r3, #12]
 80015d4:	611a      	str	r2, [r3, #16]

  /** Initializes the CPU, AHB and APB busses clocks
  */
  RCC_OscInitStruct.OscillatorType = RCC_OSCILLATORTYPE_HSE;
 80015d6:	2301      	movs	r3, #1
 80015d8:	61bb      	str	r3, [r7, #24]
  RCC_OscInitStruct.HSEState = RCC_HSE_ON;
 80015da:	f44f 3380 	mov.w	r3, #65536	; 0x10000
 80015de:	61fb      	str	r3, [r7, #28]
  RCC_OscInitStruct.HSEPredivValue = RCC_HSE_PREDIV_DIV1;
 80015e0:	2300      	movs	r3, #0
 80015e2:	623b      	str	r3, [r7, #32]
  RCC_OscInitStruct.HSIState = RCC_HSI_ON;
 80015e4:	2301      	movs	r3, #1
 80015e6:	62bb      	str	r3, [r7, #40]	; 0x28
  RCC_OscInitStruct.PLL.PLLState = RCC_PLL_ON;
 80015e8:	2302      	movs	r3, #2
 80015ea:	637b      	str	r3, [r7, #52]	; 0x34
  RCC_OscInitStruct.PLL.PLLSource = RCC_PLLSOURCE_HSE;
 80015ec:	f44f 3380 	mov.w	r3, #65536	; 0x10000
 80015f0:	63bb      	str	r3, [r7, #56]	; 0x38
  RCC_OscInitStruct.PLL.PLLMUL = RCC_PLL_MUL9;
 80015f2:	f44f 13e0 	mov.w	r3, #1835008	; 0x1c0000
 80015f6:	63fb      	str	r3, [r7, #60]	; 0x3c
  if (HAL_RCC_OscConfig(&RCC_OscInitStruct) != HAL_OK)
 80015f8:	f107 0318 	add.w	r3, r7, #24
 80015fc:	4618      	mov	r0, r3
 80015fe:	f000 ff85 	bl	800250c <HAL_RCC_OscConfig>
 8001602:	4603      	mov	r3, r0
 8001604:	2b00      	cmp	r3, #0
 8001606:	d001      	beq.n	800160c <SystemClock_Config+0x58>
  {
    Error_Handler();
 8001608:	f000 f819 	bl	800163e <Error_Handler>
  }
  /** Initializes the CPU, AHB and APB busses clocks
  */
  RCC_ClkInitStruct.ClockType = RCC_CLOCKTYPE_HCLK|RCC_CLOCKTYPE_SYSCLK
 800160c:	230f      	movs	r3, #15
 800160e:	607b      	str	r3, [r7, #4]
                              |RCC_CLOCKTYPE_PCLK1|RCC_CLOCKTYPE_PCLK2;
  RCC_ClkInitStruct.SYSCLKSource = RCC_SYSCLKSOURCE_PLLCLK;
 8001610:	2302      	movs	r3, #2
 8001612:	60bb      	str	r3, [r7, #8]
  RCC_ClkInitStruct.AHBCLKDivider = RCC_SYSCLK_DIV1;
 8001614:	2300      	movs	r3, #0
 8001616:	60fb      	str	r3, [r7, #12]
  RCC_ClkInitStruct.APB1CLKDivider = RCC_HCLK_DIV2;
 8001618:	f44f 6380 	mov.w	r3, #1024	; 0x400
 800161c:	613b      	str	r3, [r7, #16]
  RCC_ClkInitStruct.APB2CLKDivider = RCC_HCLK_DIV1;
 800161e:	2300      	movs	r3, #0
 8001620:	617b      	str	r3, [r7, #20]

  if (HAL_RCC_ClockConfig(&RCC_ClkInitStruct, FLASH_LATENCY_2) != HAL_OK)
 8001622:	1d3b      	adds	r3, r7, #4
 8001624:	2102      	movs	r1, #2
 8001626:	4618      	mov	r0, r3
 8001628:	f001 f9d4 	bl	80029d4 <HAL_RCC_ClockConfig>
 800162c:	4603      	mov	r3, r0
 800162e:	2b00      	cmp	r3, #0
 8001630:	d001      	beq.n	8001636 <SystemClock_Config+0x82>
  {
    Error_Handler();
 8001632:	f000 f804 	bl	800163e <Error_Handler>
  }
}
 8001636:	bf00      	nop
 8001638:	3740      	adds	r7, #64	; 0x40
 800163a:	46bd      	mov	sp, r7
 800163c:	bd80      	pop	{r7, pc}

0800163e <Error_Handler>:
/**
  * @brief  This function is executed in case of error occurrence.
  * @retval None
  */
void Error_Handler(void)
{
 800163e:	b480      	push	{r7}
 8001640:	af00      	add	r7, sp, #0
  /* USER CODE BEGIN Error_Handler_Debug */
  /* User can add his own implementation to report the HAL error return state */

  /* USER CODE END Error_Handler_Debug */
}
 8001642:	bf00      	nop
 8001644:	46bd      	mov	sp, r7
 8001646:	bc80      	pop	{r7}
 8001648:	4770      	bx	lr
	...

0800164c <mode>:
#include "process.h"
#include "CameraWithErrorCorrection.h"

extern uint8_t Ov7725_vsync;

void mode(int choice) {
 800164c:	b580      	push	{r7, lr}
 800164e:	b0ba      	sub	sp, #232	; 0xe8
 8001650:	af02      	add	r7, sp, #8
 8001652:	6078      	str	r0, [r7, #4]
	switch (choice) {
 8001654:	687b      	ldr	r3, [r7, #4]
 8001656:	2b01      	cmp	r3, #1
 8001658:	d004      	beq.n	8001664 <mode+0x18>
 800165a:	687b      	ldr	r3, [r7, #4]
 800165c:	2b02      	cmp	r3, #2
 800165e:	f000 8138 	beq.w	80018d2 <mode+0x286>
					break;
			}
			break;
		}
	}
}
 8001662:	e1d7      	b.n	8001a14 <mode+0x3c8>
			uint8_t flag = 0;
 8001664:	2300      	movs	r3, #0
 8001666:	f887 30df 	strb.w	r3, [r7, #223]	; 0xdf
				AllFaces[54] = '\0';
 800166a:	2300      	movs	r3, #0
 800166c:	f887 3042 	strb.w	r3, [r7, #66]	; 0x42
				HAL_UART_Receive(&huart1, &signal, 1, 0xFFFF);
 8001670:	f107 01dc 	add.w	r1, r7, #220	; 0xdc
 8001674:	f64f 73ff 	movw	r3, #65535	; 0xffff
 8001678:	2201      	movs	r2, #1
 800167a:	48cb      	ldr	r0, [pc, #812]	; (80019a8 <mode+0x35c>)
 800167c:	f001 fc90 	bl	8002fa0 <HAL_UART_Receive>
				switch (signal) {
 8001680:	f897 30dc 	ldrb.w	r3, [r7, #220]	; 0xdc
 8001684:	3b31      	subs	r3, #49	; 0x31
 8001686:	2b03      	cmp	r3, #3
 8001688:	f200 811d 	bhi.w	80018c6 <mode+0x27a>
 800168c:	a201      	add	r2, pc, #4	; (adr r2, 8001694 <mode+0x48>)
 800168e:	f852 f023 	ldr.w	pc, [r2, r3, lsl #2]
 8001692:	bf00      	nop
 8001694:	080016a5 	.word	0x080016a5
 8001698:	080016f1 	.word	0x080016f1
 800169c:	08001825 	.word	0x08001825
 80016a0:	08001887 	.word	0x08001887
						char message_r[2], message_t = 'T', one = '1';
 80016a4:	2354      	movs	r3, #84	; 0x54
 80016a6:	f887 30d7 	strb.w	r3, [r7, #215]	; 0xd7
 80016aa:	2331      	movs	r3, #49	; 0x31
 80016ac:	f887 30d6 	strb.w	r3, [r7, #214]	; 0xd6
						HAL_UART_Transmit(&huart3, &one, 1, 0xFFFF);
 80016b0:	f107 01d6 	add.w	r1, r7, #214	; 0xd6
 80016b4:	f64f 73ff 	movw	r3, #65535	; 0xffff
 80016b8:	2201      	movs	r2, #1
 80016ba:	48bc      	ldr	r0, [pc, #752]	; (80019ac <mode+0x360>)
 80016bc:	f001 fbd7 	bl	8002e6e <HAL_UART_Transmit>
						LCD_DrawChar(0,0,signal);
 80016c0:	f897 30dc 	ldrb.w	r3, [r7, #220]	; 0xdc
 80016c4:	461a      	mov	r2, r3
 80016c6:	2100      	movs	r1, #0
 80016c8:	2000      	movs	r0, #0
 80016ca:	f7ff fed3 	bl	8001474 <LCD_DrawChar>
						HAL_UART_Receive(&huart3, message_r, sizeof(message_r), 0xFFFF);	// ok
 80016ce:	f107 01d8 	add.w	r1, r7, #216	; 0xd8
 80016d2:	f64f 73ff 	movw	r3, #65535	; 0xffff
 80016d6:	2202      	movs	r2, #2
 80016d8:	48b4      	ldr	r0, [pc, #720]	; (80019ac <mode+0x360>)
 80016da:	f001 fc61 	bl	8002fa0 <HAL_UART_Receive>
						HAL_UART_Transmit(&huart1, &message_t, 1, 0xFFFF);
 80016de:	f107 01d7 	add.w	r1, r7, #215	; 0xd7
 80016e2:	f64f 73ff 	movw	r3, #65535	; 0xffff
 80016e6:	2201      	movs	r2, #1
 80016e8:	48af      	ldr	r0, [pc, #700]	; (80019a8 <mode+0x35c>)
 80016ea:	f001 fbc0 	bl	8002e6e <HAL_UART_Transmit>
						break;
 80016ee:	e0ea      	b.n	80018c6 <mode+0x27a>
						uint8_t face = 0, two = '2';
 80016f0:	2300      	movs	r3, #0
 80016f2:	f887 30de 	strb.w	r3, [r7, #222]	; 0xde
 80016f6:	2332      	movs	r3, #50	; 0x32
 80016f8:	f887 30d5 	strb.w	r3, [r7, #213]	; 0xd5
						HAL_UART_Transmit(&huart3, &two, 1, 0xFFFF);
 80016fc:	f107 01d5 	add.w	r1, r7, #213	; 0xd5
 8001700:	f64f 73ff 	movw	r3, #65535	; 0xffff
 8001704:	2201      	movs	r2, #1
 8001706:	48a9      	ldr	r0, [pc, #676]	; (80019ac <mode+0x360>)
 8001708:	f001 fbb1 	bl	8002e6e <HAL_UART_Transmit>
						while (face < 6) {
 800170c:	e07c      	b.n	8001808 <mode+0x1bc>
							char message_r, SquareOfOneFace[9], message_t = 'T';
 800170e:	2354      	movs	r3, #84	; 0x54
 8001710:	f887 30c7 	strb.w	r3, [r7, #199]	; 0xc7
							HAL_UART_Receive(&huart1, &message_r, 1, 0xFFFF);
 8001714:	f107 01d4 	add.w	r1, r7, #212	; 0xd4
 8001718:	f64f 73ff 	movw	r3, #65535	; 0xffff
 800171c:	2201      	movs	r2, #1
 800171e:	48a2      	ldr	r0, [pc, #648]	; (80019a8 <mode+0x35c>)
 8001720:	f001 fc3e 	bl	8002fa0 <HAL_UART_Receive>
							while(Ov7725_Init() != SUCCESS);
 8001724:	bf00      	nop
 8001726:	f7fe fe3b 	bl	80003a0 <Ov7725_Init>
 800172a:	4603      	mov	r3, r0
 800172c:	2b01      	cmp	r3, #1
 800172e:	d1fa      	bne.n	8001726 <mode+0xda>
							Ov7725_vsync = 0;
 8001730:	4b9f      	ldr	r3, [pc, #636]	; (80019b0 <mode+0x364>)
 8001732:	2200      	movs	r2, #0
 8001734:	701a      	strb	r2, [r3, #0]
							HAL_Delay(1000);
 8001736:	f44f 707a 	mov.w	r0, #1000	; 0x3e8
 800173a:	f000 fbcf 	bl	8001edc <HAL_Delay>
								if (Ov7725_vsync == 2)
 800173e:	4b9c      	ldr	r3, [pc, #624]	; (80019b0 <mode+0x364>)
 8001740:	781b      	ldrb	r3, [r3, #0]
 8001742:	2b02      	cmp	r3, #2
 8001744:	d1fb      	bne.n	800173e <mode+0xf2>
										FIFO_PREPARE;
 8001746:	4b9b      	ldr	r3, [pc, #620]	; (80019b4 <mode+0x368>)
 8001748:	2204      	movs	r2, #4
 800174a:	615a      	str	r2, [r3, #20]
 800174c:	4b9a      	ldr	r3, [pc, #616]	; (80019b8 <mode+0x36c>)
 800174e:	2220      	movs	r2, #32
 8001750:	615a      	str	r2, [r3, #20]
 8001752:	4b99      	ldr	r3, [pc, #612]	; (80019b8 <mode+0x36c>)
 8001754:	2220      	movs	r2, #32
 8001756:	611a      	str	r2, [r3, #16]
 8001758:	4b96      	ldr	r3, [pc, #600]	; (80019b4 <mode+0x368>)
 800175a:	2204      	movs	r2, #4
 800175c:	611a      	str	r2, [r3, #16]
 800175e:	4b96      	ldr	r3, [pc, #600]	; (80019b8 <mode+0x36c>)
 8001760:	2220      	movs	r2, #32
 8001762:	615a      	str	r2, [r3, #20]
 8001764:	4b94      	ldr	r3, [pc, #592]	; (80019b8 <mode+0x36c>)
 8001766:	2220      	movs	r2, #32
 8001768:	611a      	str	r2, [r3, #16]
										ReadSquare(SquareOfOneFace);
 800176a:	f107 03c8 	add.w	r3, r7, #200	; 0xc8
 800176e:	4618      	mov	r0, r3
 8001770:	f7ff f83c 	bl	80007ec <ReadSquare>
										break;
 8001774:	bf00      	nop
							LCD_Clear ( 0, 0, 240, 320, GREY );
 8001776:	f24f 73de 	movw	r3, #63454	; 0xf7de
 800177a:	9300      	str	r3, [sp, #0]
 800177c:	f44f 73a0 	mov.w	r3, #320	; 0x140
 8001780:	22f0      	movs	r2, #240	; 0xf0
 8001782:	2100      	movs	r1, #0
 8001784:	2000      	movs	r0, #0
 8001786:	f7ff fe52 	bl	800142e <LCD_Clear>
							printFace(SquareOfOneFace);
 800178a:	f107 03c8 	add.w	r3, r7, #200	; 0xc8
 800178e:	4618      	mov	r0, r3
 8001790:	f7fe fdbc 	bl	800030c <printFace>
								printFace(SquareOfOneFace);
 8001794:	f107 03c8 	add.w	r3, r7, #200	; 0xc8
 8001798:	4618      	mov	r0, r3
 800179a:	f7fe fdb7 	bl	800030c <printFace>
								HAL_UART_Receive(&huart3, correctionMessage, sizeof(correctionMessage), 0xFFFF);
 800179e:	f107 01c0 	add.w	r1, r7, #192	; 0xc0
 80017a2:	f64f 73ff 	movw	r3, #65535	; 0xffff
 80017a6:	2207      	movs	r2, #7
 80017a8:	4880      	ldr	r0, [pc, #512]	; (80019ac <mode+0x360>)
 80017aa:	f001 fbf9 	bl	8002fa0 <HAL_UART_Receive>
								if (stringCompare(correctionMessage, "confirm", 7) == 0) {	// correct then
 80017ae:	f107 03c0 	add.w	r3, r7, #192	; 0xc0
 80017b2:	2207      	movs	r2, #7
 80017b4:	4981      	ldr	r1, [pc, #516]	; (80019bc <mode+0x370>)
 80017b6:	4618      	mov	r0, r3
 80017b8:	f7fe fd86 	bl	80002c8 <stringCompare>
 80017bc:	4603      	mov	r3, r0
 80017be:	2b00      	cmp	r3, #0
 80017c0:	d116      	bne.n	80017f0 <mode+0x1a4>
									writeDataIntoAllFaces(AllFaces, SquareOfOneFace,face);	// write one face data into all face data
 80017c2:	f897 20de 	ldrb.w	r2, [r7, #222]	; 0xde
 80017c6:	f107 01c8 	add.w	r1, r7, #200	; 0xc8
 80017ca:	f107 030c 	add.w	r3, r7, #12
 80017ce:	4618      	mov	r0, r3
 80017d0:	f7fe fd28 	bl	8000224 <writeDataIntoAllFaces>
									HAL_UART_Transmit(&huart1, &message_t, 1, 0xFFFF);		// transmit signal to Control Board
 80017d4:	f107 01c7 	add.w	r1, r7, #199	; 0xc7
 80017d8:	f64f 73ff 	movw	r3, #65535	; 0xffff
 80017dc:	2201      	movs	r2, #1
 80017de:	4872      	ldr	r0, [pc, #456]	; (80019a8 <mode+0x35c>)
 80017e0:	f001 fb45 	bl	8002e6e <HAL_UART_Transmit>
									face++;
 80017e4:	f897 30de 	ldrb.w	r3, [r7, #222]	; 0xde
 80017e8:	3301      	adds	r3, #1
 80017ea:	f887 30de 	strb.w	r3, [r7, #222]	; 0xde
 80017ee:	e00b      	b.n	8001808 <mode+0x1bc>
									SquareOfOneFace[correctionMessage[0]-'1'] = (char) ((int) correctionMessage[1] - 32);// correct it and go back to receceive message from PC
 80017f0:	f897 20c1 	ldrb.w	r2, [r7, #193]	; 0xc1
 80017f4:	f897 30c0 	ldrb.w	r3, [r7, #192]	; 0xc0
 80017f8:	3b31      	subs	r3, #49	; 0x31
 80017fa:	3a20      	subs	r2, #32
 80017fc:	b2d2      	uxtb	r2, r2
 80017fe:	33e0      	adds	r3, #224	; 0xe0
 8001800:	443b      	add	r3, r7
 8001802:	f803 2c18 	strb.w	r2, [r3, #-24]
							while (1) {
 8001806:	e7c5      	b.n	8001794 <mode+0x148>
						while (face < 6) {
 8001808:	f897 30de 	ldrb.w	r3, [r7, #222]	; 0xde
 800180c:	2b05      	cmp	r3, #5
 800180e:	f67f af7e 	bls.w	800170e <mode+0xc2>
						HAL_UART_Transmit(&huart3, AllFaces, sizeof(AllFaces), 0xFFFF);		// transmit capture result to PC
 8001812:	f107 010c 	add.w	r1, r7, #12
 8001816:	f64f 73ff 	movw	r3, #65535	; 0xffff
 800181a:	2237      	movs	r2, #55	; 0x37
 800181c:	4863      	ldr	r0, [pc, #396]	; (80019ac <mode+0x360>)
 800181e:	f001 fb26 	bl	8002e6e <HAL_UART_Transmit>
						break;
 8001822:	e050      	b.n	80018c6 <mode+0x27a>
						if (flag == 1)
 8001824:	f897 30df 	ldrb.w	r3, [r7, #223]	; 0xdf
 8001828:	2b01      	cmp	r3, #1
 800182a:	d04b      	beq.n	80018c4 <mode+0x278>
						LCD_Clear( 0, 0, 240, 320, GREY );
 800182c:	f24f 73de 	movw	r3, #63454	; 0xf7de
 8001830:	9300      	str	r3, [sp, #0]
 8001832:	f44f 73a0 	mov.w	r3, #320	; 0x140
 8001836:	22f0      	movs	r2, #240	; 0xf0
 8001838:	2100      	movs	r1, #0
 800183a:	2000      	movs	r0, #0
 800183c:	f7ff fdf7 	bl	800142e <LCD_Clear>
						HAL_UART_Transmit(&huart3, &signal, 1, 0xFFFF);
 8001840:	f107 01dc 	add.w	r1, r7, #220	; 0xdc
 8001844:	f64f 73ff 	movw	r3, #65535	; 0xffff
 8001848:	2201      	movs	r2, #1
 800184a:	4858      	ldr	r0, [pc, #352]	; (80019ac <mode+0x360>)
 800184c:	f001 fb0f 	bl	8002e6e <HAL_UART_Transmit>
						HAL_UART_Receive(&huart3, message_r, sizeof(message_r), 0xFFFF);
 8001850:	f107 0144 	add.w	r1, r7, #68	; 0x44
 8001854:	f64f 73ff 	movw	r3, #65535	; 0xffff
 8001858:	2264      	movs	r2, #100	; 0x64
 800185a:	4854      	ldr	r0, [pc, #336]	; (80019ac <mode+0x360>)
 800185c:	f001 fba0 	bl	8002fa0 <HAL_UART_Receive>
						LCD_DrawString(0,16, message_r);
 8001860:	f107 0344 	add.w	r3, r7, #68	; 0x44
 8001864:	461a      	mov	r2, r3
 8001866:	2110      	movs	r1, #16
 8001868:	2000      	movs	r0, #0
 800186a:	f7ff fe49 	bl	8001500 <LCD_DrawString>
						HAL_UART_Transmit(&huart1, message_r, sizeof(message_r), 0xFFFF);
 800186e:	f107 0144 	add.w	r1, r7, #68	; 0x44
 8001872:	f64f 73ff 	movw	r3, #65535	; 0xffff
 8001876:	2264      	movs	r2, #100	; 0x64
 8001878:	484b      	ldr	r0, [pc, #300]	; (80019a8 <mode+0x35c>)
 800187a:	f001 faf8 	bl	8002e6e <HAL_UART_Transmit>
						flag = 1;
 800187e:	2301      	movs	r3, #1
 8001880:	f887 30df 	strb.w	r3, [r7, #223]	; 0xdf
						break;
 8001884:	e01f      	b.n	80018c6 <mode+0x27a>
						char message_r[2], message_t = 'T', four = '4';
 8001886:	2354      	movs	r3, #84	; 0x54
 8001888:	f887 30bb 	strb.w	r3, [r7, #187]	; 0xbb
 800188c:	2334      	movs	r3, #52	; 0x34
 800188e:	f887 30ba 	strb.w	r3, [r7, #186]	; 0xba
						HAL_UART_Transmit(&huart3, &four, 1, 0xFFFF);
 8001892:	f107 01ba 	add.w	r1, r7, #186	; 0xba
 8001896:	f64f 73ff 	movw	r3, #65535	; 0xffff
 800189a:	2201      	movs	r2, #1
 800189c:	4843      	ldr	r0, [pc, #268]	; (80019ac <mode+0x360>)
 800189e:	f001 fae6 	bl	8002e6e <HAL_UART_Transmit>
						HAL_UART_Receive(&huart3, message_r, sizeof(message_r), 0xFFFF);
 80018a2:	f107 01bc 	add.w	r1, r7, #188	; 0xbc
 80018a6:	f64f 73ff 	movw	r3, #65535	; 0xffff
 80018aa:	2202      	movs	r2, #2
 80018ac:	483f      	ldr	r0, [pc, #252]	; (80019ac <mode+0x360>)
 80018ae:	f001 fb77 	bl	8002fa0 <HAL_UART_Receive>
						HAL_UART_Transmit(&huart1, &message_t, 1, 0xFFFF);
 80018b2:	f107 01bb 	add.w	r1, r7, #187	; 0xbb
 80018b6:	f64f 73ff 	movw	r3, #65535	; 0xffff
 80018ba:	2201      	movs	r2, #1
 80018bc:	483a      	ldr	r0, [pc, #232]	; (80019a8 <mode+0x35c>)
 80018be:	f001 fad6 	bl	8002e6e <HAL_UART_Transmit>
						break;
 80018c2:	e000      	b.n	80018c6 <mode+0x27a>
							break;
 80018c4:	bf00      	nop
				if (signal == '4')
 80018c6:	f897 30dc 	ldrb.w	r3, [r7, #220]	; 0xdc
 80018ca:	2b34      	cmp	r3, #52	; 0x34
 80018cc:	f000 809f 	beq.w	8001a0e <mode+0x3c2>
			while (1) {
 80018d0:	e6cb      	b.n	800166a <mode+0x1e>
			uint8_t flag = 0;
 80018d2:	2300      	movs	r3, #0
 80018d4:	f887 30dd 	strb.w	r3, [r7, #221]	; 0xdd
				HAL_UART_Receive(&huart1, &signal, 1, 0xFFFF);
 80018d8:	f107 01b9 	add.w	r1, r7, #185	; 0xb9
 80018dc:	f64f 73ff 	movw	r3, #65535	; 0xffff
 80018e0:	2201      	movs	r2, #1
 80018e2:	4831      	ldr	r0, [pc, #196]	; (80019a8 <mode+0x35c>)
 80018e4:	f001 fb5c 	bl	8002fa0 <HAL_UART_Receive>
				switch (signal) {
 80018e8:	f897 30b9 	ldrb.w	r3, [r7, #185]	; 0xb9
 80018ec:	2b33      	cmp	r3, #51	; 0x33
 80018ee:	d069      	beq.n	80019c4 <mode+0x378>
 80018f0:	2b33      	cmp	r3, #51	; 0x33
 80018f2:	f300 8087 	bgt.w	8001a04 <mode+0x3b8>
 80018f6:	2b31      	cmp	r3, #49	; 0x31
 80018f8:	d002      	beq.n	8001900 <mode+0x2b4>
 80018fa:	2b32      	cmp	r3, #50	; 0x32
 80018fc:	d01f      	beq.n	800193e <mode+0x2f2>
 80018fe:	e081      	b.n	8001a04 <mode+0x3b8>
						char message_r[2], message_t = 'T', one = '1';
 8001900:	2354      	movs	r3, #84	; 0x54
 8001902:	f887 30b3 	strb.w	r3, [r7, #179]	; 0xb3
 8001906:	2331      	movs	r3, #49	; 0x31
 8001908:	f887 30b2 	strb.w	r3, [r7, #178]	; 0xb2
						HAL_UART_Transmit(&huart3, &one, 1, 0xFFFF);
 800190c:	f107 01b2 	add.w	r1, r7, #178	; 0xb2
 8001910:	f64f 73ff 	movw	r3, #65535	; 0xffff
 8001914:	2201      	movs	r2, #1
 8001916:	4825      	ldr	r0, [pc, #148]	; (80019ac <mode+0x360>)
 8001918:	f001 faa9 	bl	8002e6e <HAL_UART_Transmit>
						HAL_UART_Receive(&huart3, message_r, sizeof(message_r), 0xFFFF);
 800191c:	f107 01b4 	add.w	r1, r7, #180	; 0xb4
 8001920:	f64f 73ff 	movw	r3, #65535	; 0xffff
 8001924:	2202      	movs	r2, #2
 8001926:	4821      	ldr	r0, [pc, #132]	; (80019ac <mode+0x360>)
 8001928:	f001 fb3a 	bl	8002fa0 <HAL_UART_Receive>
						HAL_UART_Transmit(&huart1, &message_t, 1, 0xFFFF);
 800192c:	f107 01b3 	add.w	r1, r7, #179	; 0xb3
 8001930:	f64f 73ff 	movw	r3, #65535	; 0xffff
 8001934:	2201      	movs	r2, #1
 8001936:	481c      	ldr	r0, [pc, #112]	; (80019a8 <mode+0x35c>)
 8001938:	f001 fa99 	bl	8002e6e <HAL_UART_Transmit>
						break;
 800193c:	e062      	b.n	8001a04 <mode+0x3b8>
						if (flag == 1)
 800193e:	f897 30dd 	ldrb.w	r3, [r7, #221]	; 0xdd
 8001942:	2b01      	cmp	r3, #1
 8001944:	d05d      	beq.n	8001a02 <mode+0x3b6>
						char message_r[100], two = '2';
 8001946:	2332      	movs	r3, #50	; 0x32
 8001948:	f887 30b1 	strb.w	r3, [r7, #177]	; 0xb1
						HAL_UART_Transmit(&huart3, &two, 1, 0xFFFF);
 800194c:	f107 01b1 	add.w	r1, r7, #177	; 0xb1
 8001950:	f64f 73ff 	movw	r3, #65535	; 0xffff
 8001954:	2201      	movs	r2, #1
 8001956:	4815      	ldr	r0, [pc, #84]	; (80019ac <mode+0x360>)
 8001958:	f001 fa89 	bl	8002e6e <HAL_UART_Transmit>
						LCD_DrawString(0, 0, "w");
 800195c:	4a18      	ldr	r2, [pc, #96]	; (80019c0 <mode+0x374>)
 800195e:	2100      	movs	r1, #0
 8001960:	2000      	movs	r0, #0
 8001962:	f7ff fdcd 	bl	8001500 <LCD_DrawString>
						HAL_UART_Receive(&huart3, message_r, sizeof(message_r), 0xFFFF);
 8001966:	f107 0144 	add.w	r1, r7, #68	; 0x44
 800196a:	f64f 73ff 	movw	r3, #65535	; 0xffff
 800196e:	2264      	movs	r2, #100	; 0x64
 8001970:	480e      	ldr	r0, [pc, #56]	; (80019ac <mode+0x360>)
 8001972:	f001 fb15 	bl	8002fa0 <HAL_UART_Receive>
						LCD_DrawString(0, 10, "w");
 8001976:	4a12      	ldr	r2, [pc, #72]	; (80019c0 <mode+0x374>)
 8001978:	210a      	movs	r1, #10
 800197a:	2000      	movs	r0, #0
 800197c:	f7ff fdc0 	bl	8001500 <LCD_DrawString>
						LCD_DrawString(0, 20, message_r);
 8001980:	f107 0344 	add.w	r3, r7, #68	; 0x44
 8001984:	461a      	mov	r2, r3
 8001986:	2114      	movs	r1, #20
 8001988:	2000      	movs	r0, #0
 800198a:	f7ff fdb9 	bl	8001500 <LCD_DrawString>
						HAL_UART_Transmit(&huart1, message_r, sizeof(message_r), 0xFFFF);
 800198e:	f107 0144 	add.w	r1, r7, #68	; 0x44
 8001992:	f64f 73ff 	movw	r3, #65535	; 0xffff
 8001996:	2264      	movs	r2, #100	; 0x64
 8001998:	4803      	ldr	r0, [pc, #12]	; (80019a8 <mode+0x35c>)
 800199a:	f001 fa68 	bl	8002e6e <HAL_UART_Transmit>
						flag = 1;
 800199e:	2301      	movs	r3, #1
 80019a0:	f887 30dd 	strb.w	r3, [r7, #221]	; 0xdd
						break;
 80019a4:	e02e      	b.n	8001a04 <mode+0x3b8>
 80019a6:	bf00      	nop
 80019a8:	20000110 	.word	0x20000110
 80019ac:	20000150 	.word	0x20000150
 80019b0:	2000010c 	.word	0x2000010c
 80019b4:	40010800 	.word	0x40010800
 80019b8:	40011000 	.word	0x40011000
 80019bc:	080035f8 	.word	0x080035f8
 80019c0:	08003600 	.word	0x08003600
						char message_r[2], message_t = 'T', three = '3';
 80019c4:	2354      	movs	r3, #84	; 0x54
 80019c6:	f887 30ab 	strb.w	r3, [r7, #171]	; 0xab
 80019ca:	2333      	movs	r3, #51	; 0x33
 80019cc:	f887 30aa 	strb.w	r3, [r7, #170]	; 0xaa
						HAL_UART_Transmit(&huart3, &three, 1, 0xFFFF);
 80019d0:	f107 01aa 	add.w	r1, r7, #170	; 0xaa
 80019d4:	f64f 73ff 	movw	r3, #65535	; 0xffff
 80019d8:	2201      	movs	r2, #1
 80019da:	4810      	ldr	r0, [pc, #64]	; (8001a1c <mode+0x3d0>)
 80019dc:	f001 fa47 	bl	8002e6e <HAL_UART_Transmit>
						HAL_UART_Receive(&huart3, message_r, sizeof(message_r), 0xFFFF);
 80019e0:	f107 01ac 	add.w	r1, r7, #172	; 0xac
 80019e4:	f64f 73ff 	movw	r3, #65535	; 0xffff
 80019e8:	2202      	movs	r2, #2
 80019ea:	480c      	ldr	r0, [pc, #48]	; (8001a1c <mode+0x3d0>)
 80019ec:	f001 fad8 	bl	8002fa0 <HAL_UART_Receive>
						HAL_UART_Transmit(&huart1, &message_t, 1, 0xFFFF);
 80019f0:	f107 01ab 	add.w	r1, r7, #171	; 0xab
 80019f4:	f64f 73ff 	movw	r3, #65535	; 0xffff
 80019f8:	2201      	movs	r2, #1
 80019fa:	4809      	ldr	r0, [pc, #36]	; (8001a20 <mode+0x3d4>)
 80019fc:	f001 fa37 	bl	8002e6e <HAL_UART_Transmit>
						break;
 8001a00:	e000      	b.n	8001a04 <mode+0x3b8>
							break;
 8001a02:	bf00      	nop
				if (signal == '3')
 8001a04:	f897 30b9 	ldrb.w	r3, [r7, #185]	; 0xb9
 8001a08:	2b33      	cmp	r3, #51	; 0x33
 8001a0a:	d002      	beq.n	8001a12 <mode+0x3c6>
			while (1) {
 8001a0c:	e764      	b.n	80018d8 <mode+0x28c>
			break;
 8001a0e:	bf00      	nop
 8001a10:	e000      	b.n	8001a14 <mode+0x3c8>
			break;
 8001a12:	bf00      	nop
}
 8001a14:	bf00      	nop
 8001a16:	37e0      	adds	r7, #224	; 0xe0
 8001a18:	46bd      	mov	sp, r7
 8001a1a:	bd80      	pop	{r7, pc}
 8001a1c:	20000150 	.word	0x20000150
 8001a20:	20000110 	.word	0x20000110

08001a24 <HAL_MspInit>:
/* USER CODE END 0 */
/**
  * Initializes the Global MSP.
  */
void HAL_MspInit(void)
{
 8001a24:	b480      	push	{r7}
 8001a26:	b085      	sub	sp, #20
 8001a28:	af00      	add	r7, sp, #0
  /* USER CODE BEGIN MspInit 0 */

  /* USER CODE END MspInit 0 */

  __HAL_RCC_AFIO_CLK_ENABLE();
 8001a2a:	4b15      	ldr	r3, [pc, #84]	; (8001a80 <HAL_MspInit+0x5c>)
 8001a2c:	699b      	ldr	r3, [r3, #24]
 8001a2e:	4a14      	ldr	r2, [pc, #80]	; (8001a80 <HAL_MspInit+0x5c>)
 8001a30:	f043 0301 	orr.w	r3, r3, #1
 8001a34:	6193      	str	r3, [r2, #24]
 8001a36:	4b12      	ldr	r3, [pc, #72]	; (8001a80 <HAL_MspInit+0x5c>)
 8001a38:	699b      	ldr	r3, [r3, #24]
 8001a3a:	f003 0301 	and.w	r3, r3, #1
 8001a3e:	60bb      	str	r3, [r7, #8]
 8001a40:	68bb      	ldr	r3, [r7, #8]
  __HAL_RCC_PWR_CLK_ENABLE();
 8001a42:	4b0f      	ldr	r3, [pc, #60]	; (8001a80 <HAL_MspInit+0x5c>)
 8001a44:	69db      	ldr	r3, [r3, #28]
 8001a46:	4a0e      	ldr	r2, [pc, #56]	; (8001a80 <HAL_MspInit+0x5c>)
 8001a48:	f043 5380 	orr.w	r3, r3, #268435456	; 0x10000000
 8001a4c:	61d3      	str	r3, [r2, #28]
 8001a4e:	4b0c      	ldr	r3, [pc, #48]	; (8001a80 <HAL_MspInit+0x5c>)
 8001a50:	69db      	ldr	r3, [r3, #28]
 8001a52:	f003 5380 	and.w	r3, r3, #268435456	; 0x10000000
 8001a56:	607b      	str	r3, [r7, #4]
 8001a58:	687b      	ldr	r3, [r7, #4]

  /* System interrupt init*/

  /** NOJTAG: JTAG-DP Disabled and SW-DP Enabled
  */
  __HAL_AFIO_REMAP_SWJ_NOJTAG();
 8001a5a:	4b0a      	ldr	r3, [pc, #40]	; (8001a84 <HAL_MspInit+0x60>)
 8001a5c:	685b      	ldr	r3, [r3, #4]
 8001a5e:	60fb      	str	r3, [r7, #12]
 8001a60:	68fb      	ldr	r3, [r7, #12]
 8001a62:	f023 63e0 	bic.w	r3, r3, #117440512	; 0x7000000
 8001a66:	60fb      	str	r3, [r7, #12]
 8001a68:	68fb      	ldr	r3, [r7, #12]
 8001a6a:	f043 7300 	orr.w	r3, r3, #33554432	; 0x2000000
 8001a6e:	60fb      	str	r3, [r7, #12]
 8001a70:	4a04      	ldr	r2, [pc, #16]	; (8001a84 <HAL_MspInit+0x60>)
 8001a72:	68fb      	ldr	r3, [r7, #12]
 8001a74:	6053      	str	r3, [r2, #4]

  /* USER CODE BEGIN MspInit 1 */

  /* USER CODE END MspInit 1 */
}
 8001a76:	bf00      	nop
 8001a78:	3714      	adds	r7, #20
 8001a7a:	46bd      	mov	sp, r7
 8001a7c:	bc80      	pop	{r7}
 8001a7e:	4770      	bx	lr
 8001a80:	40021000 	.word	0x40021000
 8001a84:	40010000 	.word	0x40010000

08001a88 <NMI_Handler>:
/******************************************************************************/
/**
  * @brief This function handles Non maskable interrupt.
  */
void NMI_Handler(void)
{
 8001a88:	b480      	push	{r7}
 8001a8a:	af00      	add	r7, sp, #0

  /* USER CODE END NonMaskableInt_IRQn 0 */
  /* USER CODE BEGIN NonMaskableInt_IRQn 1 */

  /* USER CODE END NonMaskableInt_IRQn 1 */
}
 8001a8c:	bf00      	nop
 8001a8e:	46bd      	mov	sp, r7
 8001a90:	bc80      	pop	{r7}
 8001a92:	4770      	bx	lr

08001a94 <HardFault_Handler>:

/**
  * @brief This function handles Hard fault interrupt.
  */
void HardFault_Handler(void)
{
 8001a94:	b480      	push	{r7}
 8001a96:	af00      	add	r7, sp, #0
  /* USER CODE BEGIN HardFault_IRQn 0 */

  /* USER CODE END HardFault_IRQn 0 */
  while (1)
 8001a98:	e7fe      	b.n	8001a98 <HardFault_Handler+0x4>

08001a9a <MemManage_Handler>:

/**
  * @brief This function handles Memory management fault.
  */
void MemManage_Handler(void)
{
 8001a9a:	b480      	push	{r7}
 8001a9c:	af00      	add	r7, sp, #0
  /* USER CODE BEGIN MemoryManagement_IRQn 0 */

  /* USER CODE END MemoryManagement_IRQn 0 */
  while (1)
 8001a9e:	e7fe      	b.n	8001a9e <MemManage_Handler+0x4>

08001aa0 <BusFault_Handler>:

/**
  * @brief This function handles Prefetch fault, memory access fault.
  */
void BusFault_Handler(void)
{
 8001aa0:	b480      	push	{r7}
 8001aa2:	af00      	add	r7, sp, #0
  /* USER CODE BEGIN BusFault_IRQn 0 */

  /* USER CODE END BusFault_IRQn 0 */
  while (1)
 8001aa4:	e7fe      	b.n	8001aa4 <BusFault_Handler+0x4>

08001aa6 <UsageFault_Handler>:

/**
  * @brief This function handles Undefined instruction or illegal state.
  */
void UsageFault_Handler(void)
{
 8001aa6:	b480      	push	{r7}
 8001aa8:	af00      	add	r7, sp, #0
  /* USER CODE BEGIN UsageFault_IRQn 0 */

  /* USER CODE END UsageFault_IRQn 0 */
  while (1)
 8001aaa:	e7fe      	b.n	8001aaa <UsageFault_Handler+0x4>

08001aac <SVC_Handler>:

/**
  * @brief This function handles System service call via SWI instruction.
  */
void SVC_Handler(void)
{
 8001aac:	b480      	push	{r7}
 8001aae:	af00      	add	r7, sp, #0

  /* USER CODE END SVCall_IRQn 0 */
  /* USER CODE BEGIN SVCall_IRQn 1 */

  /* USER CODE END SVCall_IRQn 1 */
}
 8001ab0:	bf00      	nop
 8001ab2:	46bd      	mov	sp, r7
 8001ab4:	bc80      	pop	{r7}
 8001ab6:	4770      	bx	lr

08001ab8 <DebugMon_Handler>:

/**
  * @brief This function handles Debug monitor.
  */
void DebugMon_Handler(void)
{
 8001ab8:	b480      	push	{r7}
 8001aba:	af00      	add	r7, sp, #0

  /* USER CODE END DebugMonitor_IRQn 0 */
  /* USER CODE BEGIN DebugMonitor_IRQn 1 */

  /* USER CODE END DebugMonitor_IRQn 1 */
}
 8001abc:	bf00      	nop
 8001abe:	46bd      	mov	sp, r7
 8001ac0:	bc80      	pop	{r7}
 8001ac2:	4770      	bx	lr

08001ac4 <PendSV_Handler>:

/**
  * @brief This function handles Pendable request for system service.
  */
void PendSV_Handler(void)
{
 8001ac4:	b480      	push	{r7}
 8001ac6:	af00      	add	r7, sp, #0

  /* USER CODE END PendSV_IRQn 0 */
  /* USER CODE BEGIN PendSV_IRQn 1 */

  /* USER CODE END PendSV_IRQn 1 */
}
 8001ac8:	bf00      	nop
 8001aca:	46bd      	mov	sp, r7
 8001acc:	bc80      	pop	{r7}
 8001ace:	4770      	bx	lr

08001ad0 <SysTick_Handler>:

/**
  * @brief This function handles System tick timer.
  */
void SysTick_Handler(void)
{
 8001ad0:	b580      	push	{r7, lr}
 8001ad2:	af00      	add	r7, sp, #0
  /* USER CODE BEGIN SysTick_IRQn 0 */

  /* USER CODE END SysTick_IRQn 0 */
  HAL_IncTick();
 8001ad4:	f000 f9e6 	bl	8001ea4 <HAL_IncTick>
  /* USER CODE BEGIN SysTick_IRQn 1 */

  /* USER CODE END SysTick_IRQn 1 */
}
 8001ad8:	bf00      	nop
 8001ada:	bd80      	pop	{r7, pc}

08001adc <EXTI3_IRQHandler>:

/**
  * @brief This function handles EXTI line3 interrupt.
  */
void EXTI3_IRQHandler(void)
{
 8001adc:	b580      	push	{r7, lr}
 8001ade:	af00      	add	r7, sp, #0
  /* USER CODE BEGIN EXTI3_IRQn 0 */
  if (__HAL_GPIO_EXTI_GET_IT(GPIO_PIN_3) != RESET)
 8001ae0:	4b17      	ldr	r3, [pc, #92]	; (8001b40 <EXTI3_IRQHandler+0x64>)
 8001ae2:	695b      	ldr	r3, [r3, #20]
 8001ae4:	f003 0308 	and.w	r3, r3, #8
 8001ae8:	2b00      	cmp	r3, #0
 8001aea:	d023      	beq.n	8001b34 <EXTI3_IRQHandler+0x58>
  {
		if( Ov7725_vsync == 0 )
 8001aec:	4b15      	ldr	r3, [pc, #84]	; (8001b44 <EXTI3_IRQHandler+0x68>)
 8001aee:	781b      	ldrb	r3, [r3, #0]
 8001af0:	2b00      	cmp	r3, #0
 8001af2:	d10f      	bne.n	8001b14 <EXTI3_IRQHandler+0x38>
    {
				FIFO_WRST_L(); 	                      
 8001af4:	4b14      	ldr	r3, [pc, #80]	; (8001b48 <EXTI3_IRQHandler+0x6c>)
 8001af6:	2210      	movs	r2, #16
 8001af8:	615a      	str	r2, [r3, #20]
        FIFO_WE_H();	                      
 8001afa:	4b14      	ldr	r3, [pc, #80]	; (8001b4c <EXTI3_IRQHandler+0x70>)
 8001afc:	2208      	movs	r2, #8
 8001afe:	611a      	str	r2, [r3, #16]
            
        Ov7725_vsync = 1;	   	
 8001b00:	4b10      	ldr	r3, [pc, #64]	; (8001b44 <EXTI3_IRQHandler+0x68>)
 8001b02:	2201      	movs	r2, #1
 8001b04:	701a      	strb	r2, [r3, #0]
        FIFO_WE_H();                         
 8001b06:	4b11      	ldr	r3, [pc, #68]	; (8001b4c <EXTI3_IRQHandler+0x70>)
 8001b08:	2208      	movs	r2, #8
 8001b0a:	611a      	str	r2, [r3, #16]
        FIFO_WRST_H();                     
 8001b0c:	4b0e      	ldr	r3, [pc, #56]	; (8001b48 <EXTI3_IRQHandler+0x6c>)
 8001b0e:	2210      	movs	r2, #16
 8001b10:	611a      	str	r2, [r3, #16]
 8001b12:	e009      	b.n	8001b28 <EXTI3_IRQHandler+0x4c>
    }
    else if( Ov7725_vsync == 1 )
 8001b14:	4b0b      	ldr	r3, [pc, #44]	; (8001b44 <EXTI3_IRQHandler+0x68>)
 8001b16:	781b      	ldrb	r3, [r3, #0]
 8001b18:	2b01      	cmp	r3, #1
 8001b1a:	d105      	bne.n	8001b28 <EXTI3_IRQHandler+0x4c>
    {
        FIFO_WE_L();                       
 8001b1c:	4b0b      	ldr	r3, [pc, #44]	; (8001b4c <EXTI3_IRQHandler+0x70>)
 8001b1e:	2208      	movs	r2, #8
 8001b20:	615a      	str	r2, [r3, #20]
        Ov7725_vsync = 2;
 8001b22:	4b08      	ldr	r3, [pc, #32]	; (8001b44 <EXTI3_IRQHandler+0x68>)
 8001b24:	2202      	movs	r2, #2
 8001b26:	701a      	strb	r2, [r3, #0]
    }        
				
		
    __HAL_GPIO_EXTI_CLEAR_IT(GPIO_PIN_3);
 8001b28:	4b05      	ldr	r3, [pc, #20]	; (8001b40 <EXTI3_IRQHandler+0x64>)
 8001b2a:	2208      	movs	r2, #8
 8001b2c:	615a      	str	r2, [r3, #20]
    HAL_GPIO_EXTI_Callback(GPIO_PIN_3);
 8001b2e:	2008      	movs	r0, #8
 8001b30:	f000 fce2 	bl	80024f8 <HAL_GPIO_EXTI_Callback>
  }

  /* USER CODE END EXTI3_IRQn 0 */
  HAL_GPIO_EXTI_IRQHandler(GPIO_PIN_3);
 8001b34:	2008      	movs	r0, #8
 8001b36:	f000 fcc7 	bl	80024c8 <HAL_GPIO_EXTI_IRQHandler>
  /* USER CODE BEGIN EXTI3_IRQn 1 */

  /* USER CODE END EXTI3_IRQn 1 */
}
 8001b3a:	bf00      	nop
 8001b3c:	bd80      	pop	{r7, pc}
 8001b3e:	bf00      	nop
 8001b40:	40010400 	.word	0x40010400
 8001b44:	2000010c 	.word	0x2000010c
 8001b48:	40011000 	.word	0x40011000
 8001b4c:	40011400 	.word	0x40011400

08001b50 <EXTI4_IRQHandler>:

/**
  * @brief This function handles EXTI line4 interrupt.
  */
void EXTI4_IRQHandler(void)
{
 8001b50:	b580      	push	{r7, lr}
 8001b52:	af00      	add	r7, sp, #0
  /* USER CODE BEGIN EXTI4_IRQn 0 */
	if (__HAL_GPIO_EXTI_GET_IT(GPIO_PIN_4) != RESET)
 8001b54:	4b09      	ldr	r3, [pc, #36]	; (8001b7c <EXTI4_IRQHandler+0x2c>)
 8001b56:	695b      	ldr	r3, [r3, #20]
 8001b58:	f003 0310 	and.w	r3, r3, #16
 8001b5c:	2b00      	cmp	r3, #0
 8001b5e:	d008      	beq.n	8001b72 <EXTI4_IRQHandler+0x22>
  {
		  ucXPT2046_TouchFlag = 1;
 8001b60:	4b07      	ldr	r3, [pc, #28]	; (8001b80 <EXTI4_IRQHandler+0x30>)
 8001b62:	2201      	movs	r2, #1
 8001b64:	701a      	strb	r2, [r3, #0]

	__HAL_GPIO_EXTI_CLEAR_IT(GPIO_PIN_4);
 8001b66:	4b05      	ldr	r3, [pc, #20]	; (8001b7c <EXTI4_IRQHandler+0x2c>)
 8001b68:	2210      	movs	r2, #16
 8001b6a:	615a      	str	r2, [r3, #20]
	HAL_GPIO_EXTI_Callback(GPIO_PIN_4);
 8001b6c:	2010      	movs	r0, #16
 8001b6e:	f000 fcc3 	bl	80024f8 <HAL_GPIO_EXTI_Callback>
  }
  /* USER CODE END EXTI4_IRQn 0 */
  HAL_GPIO_EXTI_IRQHandler(GPIO_PIN_4);
 8001b72:	2010      	movs	r0, #16
 8001b74:	f000 fca8 	bl	80024c8 <HAL_GPIO_EXTI_IRQHandler>
  /* USER CODE BEGIN EXTI4_IRQn 1 */

  /* USER CODE END EXTI4_IRQn 1 */
}
 8001b78:	bf00      	nop
 8001b7a:	bd80      	pop	{r7, pc}
 8001b7c:	40010400 	.word	0x40010400
 8001b80:	20000190 	.word	0x20000190

08001b84 <SystemInit>:
  * @note   This function should be used only after reset.
  * @param  None
  * @retval None
  */
void SystemInit (void)
{
 8001b84:	b480      	push	{r7}
 8001b86:	af00      	add	r7, sp, #0
  /* Reset the RCC clock configuration to the default reset state(for debug purpose) */
  /* Set HSION bit */
  RCC->CR |= 0x00000001U;
 8001b88:	4b15      	ldr	r3, [pc, #84]	; (8001be0 <SystemInit+0x5c>)
 8001b8a:	681b      	ldr	r3, [r3, #0]
 8001b8c:	4a14      	ldr	r2, [pc, #80]	; (8001be0 <SystemInit+0x5c>)
 8001b8e:	f043 0301 	orr.w	r3, r3, #1
 8001b92:	6013      	str	r3, [r2, #0]

  /* Reset SW, HPRE, PPRE1, PPRE2, ADCPRE and MCO bits */
#if !defined(STM32F105xC) && !defined(STM32F107xC)
  RCC->CFGR &= 0xF8FF0000U;
 8001b94:	4b12      	ldr	r3, [pc, #72]	; (8001be0 <SystemInit+0x5c>)
 8001b96:	685a      	ldr	r2, [r3, #4]
 8001b98:	4911      	ldr	r1, [pc, #68]	; (8001be0 <SystemInit+0x5c>)
 8001b9a:	4b12      	ldr	r3, [pc, #72]	; (8001be4 <SystemInit+0x60>)
 8001b9c:	4013      	ands	r3, r2
 8001b9e:	604b      	str	r3, [r1, #4]
#else
  RCC->CFGR &= 0xF0FF0000U;
#endif /* STM32F105xC */   
  
  /* Reset HSEON, CSSON and PLLON bits */
  RCC->CR &= 0xFEF6FFFFU;
 8001ba0:	4b0f      	ldr	r3, [pc, #60]	; (8001be0 <SystemInit+0x5c>)
 8001ba2:	681b      	ldr	r3, [r3, #0]
 8001ba4:	4a0e      	ldr	r2, [pc, #56]	; (8001be0 <SystemInit+0x5c>)
 8001ba6:	f023 7384 	bic.w	r3, r3, #17301504	; 0x1080000
 8001baa:	f423 3380 	bic.w	r3, r3, #65536	; 0x10000
 8001bae:	6013      	str	r3, [r2, #0]

  /* Reset HSEBYP bit */
  RCC->CR &= 0xFFFBFFFFU;
 8001bb0:	4b0b      	ldr	r3, [pc, #44]	; (8001be0 <SystemInit+0x5c>)
 8001bb2:	681b      	ldr	r3, [r3, #0]
 8001bb4:	4a0a      	ldr	r2, [pc, #40]	; (8001be0 <SystemInit+0x5c>)
 8001bb6:	f423 2380 	bic.w	r3, r3, #262144	; 0x40000
 8001bba:	6013      	str	r3, [r2, #0]

  /* Reset PLLSRC, PLLXTPRE, PLLMUL and USBPRE/OTGFSPRE bits */
  RCC->CFGR &= 0xFF80FFFFU;
 8001bbc:	4b08      	ldr	r3, [pc, #32]	; (8001be0 <SystemInit+0x5c>)
 8001bbe:	685b      	ldr	r3, [r3, #4]
 8001bc0:	4a07      	ldr	r2, [pc, #28]	; (8001be0 <SystemInit+0x5c>)
 8001bc2:	f423 03fe 	bic.w	r3, r3, #8323072	; 0x7f0000
 8001bc6:	6053      	str	r3, [r2, #4]

  /* Reset CFGR2 register */
  RCC->CFGR2 = 0x00000000U;      
#else
  /* Disable all interrupts and clear pending bits  */
  RCC->CIR = 0x009F0000U;
 8001bc8:	4b05      	ldr	r3, [pc, #20]	; (8001be0 <SystemInit+0x5c>)
 8001bca:	f44f 021f 	mov.w	r2, #10420224	; 0x9f0000
 8001bce:	609a      	str	r2, [r3, #8]
#endif 

#ifdef VECT_TAB_SRAM
  SCB->VTOR = SRAM_BASE | VECT_TAB_OFFSET; /* Vector Table Relocation in Internal SRAM. */
#else
  SCB->VTOR = FLASH_BASE | VECT_TAB_OFFSET; /* Vector Table Relocation in Internal FLASH. */
 8001bd0:	4b05      	ldr	r3, [pc, #20]	; (8001be8 <SystemInit+0x64>)
 8001bd2:	f04f 6200 	mov.w	r2, #134217728	; 0x8000000
 8001bd6:	609a      	str	r2, [r3, #8]
#endif 
}
 8001bd8:	bf00      	nop
 8001bda:	46bd      	mov	sp, r7
 8001bdc:	bc80      	pop	{r7}
 8001bde:	4770      	bx	lr
 8001be0:	40021000 	.word	0x40021000
 8001be4:	f8ff0000 	.word	0xf8ff0000
 8001be8:	e000ed00 	.word	0xe000ed00

08001bec <MX_USART1_UART_Init>:
UART_HandleTypeDef huart3;

/* USART1 init function */

void MX_USART1_UART_Init(void)
{
 8001bec:	b580      	push	{r7, lr}
 8001bee:	af00      	add	r7, sp, #0

  huart1.Instance = USART1;
 8001bf0:	4b11      	ldr	r3, [pc, #68]	; (8001c38 <MX_USART1_UART_Init+0x4c>)
 8001bf2:	4a12      	ldr	r2, [pc, #72]	; (8001c3c <MX_USART1_UART_Init+0x50>)
 8001bf4:	601a      	str	r2, [r3, #0]
  huart1.Init.BaudRate = 115200;
 8001bf6:	4b10      	ldr	r3, [pc, #64]	; (8001c38 <MX_USART1_UART_Init+0x4c>)
 8001bf8:	f44f 32e1 	mov.w	r2, #115200	; 0x1c200
 8001bfc:	605a      	str	r2, [r3, #4]
  huart1.Init.WordLength = UART_WORDLENGTH_8B;
 8001bfe:	4b0e      	ldr	r3, [pc, #56]	; (8001c38 <MX_USART1_UART_Init+0x4c>)
 8001c00:	2200      	movs	r2, #0
 8001c02:	609a      	str	r2, [r3, #8]
  huart1.Init.StopBits = UART_STOPBITS_1;
 8001c04:	4b0c      	ldr	r3, [pc, #48]	; (8001c38 <MX_USART1_UART_Init+0x4c>)
 8001c06:	2200      	movs	r2, #0
 8001c08:	60da      	str	r2, [r3, #12]
  huart1.Init.Parity = UART_PARITY_NONE;
 8001c0a:	4b0b      	ldr	r3, [pc, #44]	; (8001c38 <MX_USART1_UART_Init+0x4c>)
 8001c0c:	2200      	movs	r2, #0
 8001c0e:	611a      	str	r2, [r3, #16]
  huart1.Init.Mode = UART_MODE_TX_RX;
 8001c10:	4b09      	ldr	r3, [pc, #36]	; (8001c38 <MX_USART1_UART_Init+0x4c>)
 8001c12:	220c      	movs	r2, #12
 8001c14:	615a      	str	r2, [r3, #20]
  huart1.Init.HwFlowCtl = UART_HWCONTROL_NONE;
 8001c16:	4b08      	ldr	r3, [pc, #32]	; (8001c38 <MX_USART1_UART_Init+0x4c>)
 8001c18:	2200      	movs	r2, #0
 8001c1a:	619a      	str	r2, [r3, #24]
  huart1.Init.OverSampling = UART_OVERSAMPLING_16;
 8001c1c:	4b06      	ldr	r3, [pc, #24]	; (8001c38 <MX_USART1_UART_Init+0x4c>)
 8001c1e:	2200      	movs	r2, #0
 8001c20:	61da      	str	r2, [r3, #28]
  if (HAL_UART_Init(&huart1) != HAL_OK)
 8001c22:	4805      	ldr	r0, [pc, #20]	; (8001c38 <MX_USART1_UART_Init+0x4c>)
 8001c24:	f001 f8d6 	bl	8002dd4 <HAL_UART_Init>
 8001c28:	4603      	mov	r3, r0
 8001c2a:	2b00      	cmp	r3, #0
 8001c2c:	d001      	beq.n	8001c32 <MX_USART1_UART_Init+0x46>
  {
    Error_Handler();
 8001c2e:	f7ff fd06 	bl	800163e <Error_Handler>
  }

}
 8001c32:	bf00      	nop
 8001c34:	bd80      	pop	{r7, pc}
 8001c36:	bf00      	nop
 8001c38:	20000110 	.word	0x20000110
 8001c3c:	40013800 	.word	0x40013800

08001c40 <MX_USART3_UART_Init>:
/* USART3 init function */

void MX_USART3_UART_Init(void)
{
 8001c40:	b580      	push	{r7, lr}
 8001c42:	af00      	add	r7, sp, #0

  huart3.Instance = USART3;
 8001c44:	4b11      	ldr	r3, [pc, #68]	; (8001c8c <MX_USART3_UART_Init+0x4c>)
 8001c46:	4a12      	ldr	r2, [pc, #72]	; (8001c90 <MX_USART3_UART_Init+0x50>)
 8001c48:	601a      	str	r2, [r3, #0]
  huart3.Init.BaudRate = 115200;
 8001c4a:	4b10      	ldr	r3, [pc, #64]	; (8001c8c <MX_USART3_UART_Init+0x4c>)
 8001c4c:	f44f 32e1 	mov.w	r2, #115200	; 0x1c200
 8001c50:	605a      	str	r2, [r3, #4]
  huart3.Init.WordLength = UART_WORDLENGTH_8B;
 8001c52:	4b0e      	ldr	r3, [pc, #56]	; (8001c8c <MX_USART3_UART_Init+0x4c>)
 8001c54:	2200      	movs	r2, #0
 8001c56:	609a      	str	r2, [r3, #8]
  huart3.Init.StopBits = UART_STOPBITS_1;
 8001c58:	4b0c      	ldr	r3, [pc, #48]	; (8001c8c <MX_USART3_UART_Init+0x4c>)
 8001c5a:	2200      	movs	r2, #0
 8001c5c:	60da      	str	r2, [r3, #12]
  huart3.Init.Parity = UART_PARITY_NONE;
 8001c5e:	4b0b      	ldr	r3, [pc, #44]	; (8001c8c <MX_USART3_UART_Init+0x4c>)
 8001c60:	2200      	movs	r2, #0
 8001c62:	611a      	str	r2, [r3, #16]
  huart3.Init.Mode = UART_MODE_TX_RX;
 8001c64:	4b09      	ldr	r3, [pc, #36]	; (8001c8c <MX_USART3_UART_Init+0x4c>)
 8001c66:	220c      	movs	r2, #12
 8001c68:	615a      	str	r2, [r3, #20]
  huart3.Init.HwFlowCtl = UART_HWCONTROL_NONE;
 8001c6a:	4b08      	ldr	r3, [pc, #32]	; (8001c8c <MX_USART3_UART_Init+0x4c>)
 8001c6c:	2200      	movs	r2, #0
 8001c6e:	619a      	str	r2, [r3, #24]
  huart3.Init.OverSampling = UART_OVERSAMPLING_16;
 8001c70:	4b06      	ldr	r3, [pc, #24]	; (8001c8c <MX_USART3_UART_Init+0x4c>)
 8001c72:	2200      	movs	r2, #0
 8001c74:	61da      	str	r2, [r3, #28]
  if (HAL_UART_Init(&huart3) != HAL_OK)
 8001c76:	4805      	ldr	r0, [pc, #20]	; (8001c8c <MX_USART3_UART_Init+0x4c>)
 8001c78:	f001 f8ac 	bl	8002dd4 <HAL_UART_Init>
 8001c7c:	4603      	mov	r3, r0
 8001c7e:	2b00      	cmp	r3, #0
 8001c80:	d001      	beq.n	8001c86 <MX_USART3_UART_Init+0x46>
  {
    Error_Handler();
 8001c82:	f7ff fcdc 	bl	800163e <Error_Handler>
  }

}
 8001c86:	bf00      	nop
 8001c88:	bd80      	pop	{r7, pc}
 8001c8a:	bf00      	nop
 8001c8c:	20000150 	.word	0x20000150
 8001c90:	40004800 	.word	0x40004800

08001c94 <HAL_UART_MspInit>:

void HAL_UART_MspInit(UART_HandleTypeDef* uartHandle)
{
 8001c94:	b580      	push	{r7, lr}
 8001c96:	b08c      	sub	sp, #48	; 0x30
 8001c98:	af00      	add	r7, sp, #0
 8001c9a:	6078      	str	r0, [r7, #4]

  GPIO_InitTypeDef GPIO_InitStruct = {0};
 8001c9c:	f107 031c 	add.w	r3, r7, #28
 8001ca0:	2200      	movs	r2, #0
 8001ca2:	601a      	str	r2, [r3, #0]
 8001ca4:	605a      	str	r2, [r3, #4]
 8001ca6:	609a      	str	r2, [r3, #8]
 8001ca8:	60da      	str	r2, [r3, #12]
  if(uartHandle->Instance==USART1)
 8001caa:	687b      	ldr	r3, [r7, #4]
 8001cac:	681b      	ldr	r3, [r3, #0]
 8001cae:	4a41      	ldr	r2, [pc, #260]	; (8001db4 <HAL_UART_MspInit+0x120>)
 8001cb0:	4293      	cmp	r3, r2
 8001cb2:	d132      	bne.n	8001d1a <HAL_UART_MspInit+0x86>
  {
  /* USER CODE BEGIN USART1_MspInit 0 */

  /* USER CODE END USART1_MspInit 0 */
    /* USART1 clock enable */
    __HAL_RCC_USART1_CLK_ENABLE();
 8001cb4:	4b40      	ldr	r3, [pc, #256]	; (8001db8 <HAL_UART_MspInit+0x124>)
 8001cb6:	699b      	ldr	r3, [r3, #24]
 8001cb8:	4a3f      	ldr	r2, [pc, #252]	; (8001db8 <HAL_UART_MspInit+0x124>)
 8001cba:	f443 4380 	orr.w	r3, r3, #16384	; 0x4000
 8001cbe:	6193      	str	r3, [r2, #24]
 8001cc0:	4b3d      	ldr	r3, [pc, #244]	; (8001db8 <HAL_UART_MspInit+0x124>)
 8001cc2:	699b      	ldr	r3, [r3, #24]
 8001cc4:	f403 4380 	and.w	r3, r3, #16384	; 0x4000
 8001cc8:	61bb      	str	r3, [r7, #24]
 8001cca:	69bb      	ldr	r3, [r7, #24]

    __HAL_RCC_GPIOA_CLK_ENABLE();
 8001ccc:	4b3a      	ldr	r3, [pc, #232]	; (8001db8 <HAL_UART_MspInit+0x124>)
 8001cce:	699b      	ldr	r3, [r3, #24]
 8001cd0:	4a39      	ldr	r2, [pc, #228]	; (8001db8 <HAL_UART_MspInit+0x124>)
 8001cd2:	f043 0304 	orr.w	r3, r3, #4
 8001cd6:	6193      	str	r3, [r2, #24]
 8001cd8:	4b37      	ldr	r3, [pc, #220]	; (8001db8 <HAL_UART_MspInit+0x124>)
 8001cda:	699b      	ldr	r3, [r3, #24]
 8001cdc:	f003 0304 	and.w	r3, r3, #4
 8001ce0:	617b      	str	r3, [r7, #20]
 8001ce2:	697b      	ldr	r3, [r7, #20]
    /**USART1 GPIO Configuration
    PA9     ------> USART1_TX
    PA10     ------> USART1_RX
    */
    GPIO_InitStruct.Pin = GPIO_PIN_9;
 8001ce4:	f44f 7300 	mov.w	r3, #512	; 0x200
 8001ce8:	61fb      	str	r3, [r7, #28]
    GPIO_InitStruct.Mode = GPIO_MODE_AF_PP;
 8001cea:	2302      	movs	r3, #2
 8001cec:	623b      	str	r3, [r7, #32]
    GPIO_InitStruct.Speed = GPIO_SPEED_FREQ_HIGH;
 8001cee:	2303      	movs	r3, #3
 8001cf0:	62bb      	str	r3, [r7, #40]	; 0x28
    HAL_GPIO_Init(GPIOA, &GPIO_InitStruct);
 8001cf2:	f107 031c 	add.w	r3, r7, #28
 8001cf6:	4619      	mov	r1, r3
 8001cf8:	4830      	ldr	r0, [pc, #192]	; (8001dbc <HAL_UART_MspInit+0x128>)
 8001cfa:	f000 fa1d 	bl	8002138 <HAL_GPIO_Init>

    GPIO_InitStruct.Pin = GPIO_PIN_10;
 8001cfe:	f44f 6380 	mov.w	r3, #1024	; 0x400
 8001d02:	61fb      	str	r3, [r7, #28]
    GPIO_InitStruct.Mode = GPIO_MODE_INPUT;
 8001d04:	2300      	movs	r3, #0
 8001d06:	623b      	str	r3, [r7, #32]
    GPIO_InitStruct.Pull = GPIO_NOPULL;
 8001d08:	2300      	movs	r3, #0
 8001d0a:	627b      	str	r3, [r7, #36]	; 0x24
    HAL_GPIO_Init(GPIOA, &GPIO_InitStruct);
 8001d0c:	f107 031c 	add.w	r3, r7, #28
 8001d10:	4619      	mov	r1, r3
 8001d12:	482a      	ldr	r0, [pc, #168]	; (8001dbc <HAL_UART_MspInit+0x128>)
 8001d14:	f000 fa10 	bl	8002138 <HAL_GPIO_Init>

  /* USER CODE BEGIN USART3_MspInit 1 */

  /* USER CODE END USART3_MspInit 1 */
  }
}
 8001d18:	e048      	b.n	8001dac <HAL_UART_MspInit+0x118>
  else if(uartHandle->Instance==USART3)
 8001d1a:	687b      	ldr	r3, [r7, #4]
 8001d1c:	681b      	ldr	r3, [r3, #0]
 8001d1e:	4a28      	ldr	r2, [pc, #160]	; (8001dc0 <HAL_UART_MspInit+0x12c>)
 8001d20:	4293      	cmp	r3, r2
 8001d22:	d143      	bne.n	8001dac <HAL_UART_MspInit+0x118>
    __HAL_RCC_USART3_CLK_ENABLE();
 8001d24:	4b24      	ldr	r3, [pc, #144]	; (8001db8 <HAL_UART_MspInit+0x124>)
 8001d26:	69db      	ldr	r3, [r3, #28]
 8001d28:	4a23      	ldr	r2, [pc, #140]	; (8001db8 <HAL_UART_MspInit+0x124>)
 8001d2a:	f443 2380 	orr.w	r3, r3, #262144	; 0x40000
 8001d2e:	61d3      	str	r3, [r2, #28]
 8001d30:	4b21      	ldr	r3, [pc, #132]	; (8001db8 <HAL_UART_MspInit+0x124>)
 8001d32:	69db      	ldr	r3, [r3, #28]
 8001d34:	f403 2380 	and.w	r3, r3, #262144	; 0x40000
 8001d38:	613b      	str	r3, [r7, #16]
 8001d3a:	693b      	ldr	r3, [r7, #16]
    __HAL_RCC_GPIOC_CLK_ENABLE();
 8001d3c:	4b1e      	ldr	r3, [pc, #120]	; (8001db8 <HAL_UART_MspInit+0x124>)
 8001d3e:	699b      	ldr	r3, [r3, #24]
 8001d40:	4a1d      	ldr	r2, [pc, #116]	; (8001db8 <HAL_UART_MspInit+0x124>)
 8001d42:	f043 0310 	orr.w	r3, r3, #16
 8001d46:	6193      	str	r3, [r2, #24]
 8001d48:	4b1b      	ldr	r3, [pc, #108]	; (8001db8 <HAL_UART_MspInit+0x124>)
 8001d4a:	699b      	ldr	r3, [r3, #24]
 8001d4c:	f003 0310 	and.w	r3, r3, #16
 8001d50:	60fb      	str	r3, [r7, #12]
 8001d52:	68fb      	ldr	r3, [r7, #12]
    GPIO_InitStruct.Pin = GPIO_PIN_10;
 8001d54:	f44f 6380 	mov.w	r3, #1024	; 0x400
 8001d58:	61fb      	str	r3, [r7, #28]
    GPIO_InitStruct.Mode = GPIO_MODE_AF_PP;
 8001d5a:	2302      	movs	r3, #2
 8001d5c:	623b      	str	r3, [r7, #32]
    GPIO_InitStruct.Speed = GPIO_SPEED_FREQ_HIGH;
 8001d5e:	2303      	movs	r3, #3
 8001d60:	62bb      	str	r3, [r7, #40]	; 0x28
    HAL_GPIO_Init(GPIOC, &GPIO_InitStruct);
 8001d62:	f107 031c 	add.w	r3, r7, #28
 8001d66:	4619      	mov	r1, r3
 8001d68:	4816      	ldr	r0, [pc, #88]	; (8001dc4 <HAL_UART_MspInit+0x130>)
 8001d6a:	f000 f9e5 	bl	8002138 <HAL_GPIO_Init>
    GPIO_InitStruct.Pin = GPIO_PIN_11;
 8001d6e:	f44f 6300 	mov.w	r3, #2048	; 0x800
 8001d72:	61fb      	str	r3, [r7, #28]
    GPIO_InitStruct.Mode = GPIO_MODE_INPUT;
 8001d74:	2300      	movs	r3, #0
 8001d76:	623b      	str	r3, [r7, #32]
    GPIO_InitStruct.Pull = GPIO_NOPULL;
 8001d78:	2300      	movs	r3, #0
 8001d7a:	627b      	str	r3, [r7, #36]	; 0x24
    HAL_GPIO_Init(GPIOC, &GPIO_InitStruct);
 8001d7c:	f107 031c 	add.w	r3, r7, #28
 8001d80:	4619      	mov	r1, r3
 8001d82:	4810      	ldr	r0, [pc, #64]	; (8001dc4 <HAL_UART_MspInit+0x130>)
 8001d84:	f000 f9d8 	bl	8002138 <HAL_GPIO_Init>
    __HAL_AFIO_REMAP_USART3_PARTIAL();
 8001d88:	4b0f      	ldr	r3, [pc, #60]	; (8001dc8 <HAL_UART_MspInit+0x134>)
 8001d8a:	685b      	ldr	r3, [r3, #4]
 8001d8c:	62fb      	str	r3, [r7, #44]	; 0x2c
 8001d8e:	6afb      	ldr	r3, [r7, #44]	; 0x2c
 8001d90:	f023 0330 	bic.w	r3, r3, #48	; 0x30
 8001d94:	62fb      	str	r3, [r7, #44]	; 0x2c
 8001d96:	6afb      	ldr	r3, [r7, #44]	; 0x2c
 8001d98:	f043 63e0 	orr.w	r3, r3, #117440512	; 0x7000000
 8001d9c:	62fb      	str	r3, [r7, #44]	; 0x2c
 8001d9e:	6afb      	ldr	r3, [r7, #44]	; 0x2c
 8001da0:	f043 0310 	orr.w	r3, r3, #16
 8001da4:	62fb      	str	r3, [r7, #44]	; 0x2c
 8001da6:	4a08      	ldr	r2, [pc, #32]	; (8001dc8 <HAL_UART_MspInit+0x134>)
 8001da8:	6afb      	ldr	r3, [r7, #44]	; 0x2c
 8001daa:	6053      	str	r3, [r2, #4]
}
 8001dac:	bf00      	nop
 8001dae:	3730      	adds	r7, #48	; 0x30
 8001db0:	46bd      	mov	sp, r7
 8001db2:	bd80      	pop	{r7, pc}
 8001db4:	40013800 	.word	0x40013800
 8001db8:	40021000 	.word	0x40021000
 8001dbc:	40010800 	.word	0x40010800
 8001dc0:	40004800 	.word	0x40004800
 8001dc4:	40011000 	.word	0x40011000
 8001dc8:	40010000 	.word	0x40010000

08001dcc <Reset_Handler>:
  .weak Reset_Handler
  .type Reset_Handler, %function
Reset_Handler:

/* Copy the data segment initializers from flash to SRAM */
  movs r1, #0
 8001dcc:	2100      	movs	r1, #0
  b LoopCopyDataInit
 8001dce:	e003      	b.n	8001dd8 <LoopCopyDataInit>

08001dd0 <CopyDataInit>:

CopyDataInit:
  ldr r3, =_sidata
 8001dd0:	4b0b      	ldr	r3, [pc, #44]	; (8001e00 <LoopFillZerobss+0x14>)
  ldr r3, [r3, r1]
 8001dd2:	585b      	ldr	r3, [r3, r1]
  str r3, [r0, r1]
 8001dd4:	5043      	str	r3, [r0, r1]
  adds r1, r1, #4
 8001dd6:	3104      	adds	r1, #4

08001dd8 <LoopCopyDataInit>:

LoopCopyDataInit:
  ldr r0, =_sdata
 8001dd8:	480a      	ldr	r0, [pc, #40]	; (8001e04 <LoopFillZerobss+0x18>)
  ldr r3, =_edata
 8001dda:	4b0b      	ldr	r3, [pc, #44]	; (8001e08 <LoopFillZerobss+0x1c>)
  adds r2, r0, r1
 8001ddc:	1842      	adds	r2, r0, r1
  cmp r2, r3
 8001dde:	429a      	cmp	r2, r3
  bcc CopyDataInit
 8001de0:	d3f6      	bcc.n	8001dd0 <CopyDataInit>
  ldr r2, =_sbss
 8001de2:	4a0a      	ldr	r2, [pc, #40]	; (8001e0c <LoopFillZerobss+0x20>)
  b LoopFillZerobss
 8001de4:	e002      	b.n	8001dec <LoopFillZerobss>

08001de6 <FillZerobss>:
/* Zero fill the bss segment. */
FillZerobss:
  movs r3, #0
 8001de6:	2300      	movs	r3, #0
  str r3, [r2], #4
 8001de8:	f842 3b04 	str.w	r3, [r2], #4

08001dec <LoopFillZerobss>:

LoopFillZerobss:
  ldr r3, = _ebss
 8001dec:	4b08      	ldr	r3, [pc, #32]	; (8001e10 <LoopFillZerobss+0x24>)
  cmp r2, r3
 8001dee:	429a      	cmp	r2, r3
  bcc FillZerobss
 8001df0:	d3f9      	bcc.n	8001de6 <FillZerobss>

/* Call the clock system intitialization function.*/
    bl  SystemInit
 8001df2:	f7ff fec7 	bl	8001b84 <SystemInit>
/* Call static constructors */
    bl __libc_init_array
 8001df6:	f001 fbcf 	bl	8003598 <__libc_init_array>
/* Call the application's entry point.*/
  bl main
 8001dfa:	f7ff fbb1 	bl	8001560 <main>
  bx lr
 8001dfe:	4770      	bx	lr
  ldr r3, =_sidata
 8001e00:	08003c24 	.word	0x08003c24
  ldr r0, =_sdata
 8001e04:	20000000 	.word	0x20000000
  ldr r3, =_edata
 8001e08:	200000a8 	.word	0x200000a8
  ldr r2, =_sbss
 8001e0c:	200000a8 	.word	0x200000a8
  ldr r3, = _ebss
 8001e10:	20000198 	.word	0x20000198

08001e14 <ADC1_2_IRQHandler>:
 * @retval : None
*/
    .section .text.Default_Handler,"ax",%progbits
Default_Handler:
Infinite_Loop:
  b Infinite_Loop
 8001e14:	e7fe      	b.n	8001e14 <ADC1_2_IRQHandler>
	...

08001e18 <HAL_Init>:
  *         need to ensure that the SysTick time base is always set to 1 millisecond
  *         to have correct HAL operation.
  * @retval HAL status
  */
HAL_StatusTypeDef HAL_Init(void)
{
 8001e18:	b580      	push	{r7, lr}
 8001e1a:	af00      	add	r7, sp, #0
    defined(STM32F102x6) || defined(STM32F102xB) || \
    defined(STM32F103x6) || defined(STM32F103xB) || defined(STM32F103xE) || defined(STM32F103xG) || \
    defined(STM32F105xC) || defined(STM32F107xC)

  /* Prefetch buffer is not available on value line devices */
  __HAL_FLASH_PREFETCH_BUFFER_ENABLE();
 8001e1c:	4b08      	ldr	r3, [pc, #32]	; (8001e40 <HAL_Init+0x28>)
 8001e1e:	681b      	ldr	r3, [r3, #0]
 8001e20:	4a07      	ldr	r2, [pc, #28]	; (8001e40 <HAL_Init+0x28>)
 8001e22:	f043 0310 	orr.w	r3, r3, #16
 8001e26:	6013      	str	r3, [r2, #0]
#endif
#endif /* PREFETCH_ENABLE */

  /* Set Interrupt Group Priority */
  HAL_NVIC_SetPriorityGrouping(NVIC_PRIORITYGROUP_4);
 8001e28:	2003      	movs	r0, #3
 8001e2a:	f000 f943 	bl	80020b4 <HAL_NVIC_SetPriorityGrouping>

  /* Use systick as time base source and configure 1ms tick (default clock after Reset is HSI) */
  HAL_InitTick(TICK_INT_PRIORITY);
 8001e2e:	2000      	movs	r0, #0
 8001e30:	f000 f808 	bl	8001e44 <HAL_InitTick>

  /* Init the low level hardware */
  HAL_MspInit();
 8001e34:	f7ff fdf6 	bl	8001a24 <HAL_MspInit>

  /* Return function status */
  return HAL_OK;
 8001e38:	2300      	movs	r3, #0
}
 8001e3a:	4618      	mov	r0, r3
 8001e3c:	bd80      	pop	{r7, pc}
 8001e3e:	bf00      	nop
 8001e40:	40022000 	.word	0x40022000

08001e44 <HAL_InitTick>:
  *       implementation  in user file.
  * @param TickPriority Tick interrupt priority.
  * @retval HAL status
  */
__weak HAL_StatusTypeDef HAL_InitTick(uint32_t TickPriority)
{
 8001e44:	b580      	push	{r7, lr}
 8001e46:	b082      	sub	sp, #8
 8001e48:	af00      	add	r7, sp, #0
 8001e4a:	6078      	str	r0, [r7, #4]
  /* Configure the SysTick to have interrupt in 1ms time basis*/
  if (HAL_SYSTICK_Config(SystemCoreClock / (1000U / uwTickFreq)) > 0U)
 8001e4c:	4b12      	ldr	r3, [pc, #72]	; (8001e98 <HAL_InitTick+0x54>)
 8001e4e:	681a      	ldr	r2, [r3, #0]
 8001e50:	4b12      	ldr	r3, [pc, #72]	; (8001e9c <HAL_InitTick+0x58>)
 8001e52:	781b      	ldrb	r3, [r3, #0]
 8001e54:	4619      	mov	r1, r3
 8001e56:	f44f 737a 	mov.w	r3, #1000	; 0x3e8
 8001e5a:	fbb3 f3f1 	udiv	r3, r3, r1
 8001e5e:	fbb2 f3f3 	udiv	r3, r2, r3
 8001e62:	4618      	mov	r0, r3
 8001e64:	f000 f95b 	bl	800211e <HAL_SYSTICK_Config>
 8001e68:	4603      	mov	r3, r0
 8001e6a:	2b00      	cmp	r3, #0
 8001e6c:	d001      	beq.n	8001e72 <HAL_InitTick+0x2e>
  {
    return HAL_ERROR;
 8001e6e:	2301      	movs	r3, #1
 8001e70:	e00e      	b.n	8001e90 <HAL_InitTick+0x4c>
  }

  /* Configure the SysTick IRQ priority */
  if (TickPriority < (1UL << __NVIC_PRIO_BITS))
 8001e72:	687b      	ldr	r3, [r7, #4]
 8001e74:	2b0f      	cmp	r3, #15
 8001e76:	d80a      	bhi.n	8001e8e <HAL_InitTick+0x4a>
  {
    HAL_NVIC_SetPriority(SysTick_IRQn, TickPriority, 0U);
 8001e78:	2200      	movs	r2, #0
 8001e7a:	6879      	ldr	r1, [r7, #4]
 8001e7c:	f04f 30ff 	mov.w	r0, #4294967295	; 0xffffffff
 8001e80:	f000 f923 	bl	80020ca <HAL_NVIC_SetPriority>
    uwTickPrio = TickPriority;
 8001e84:	4a06      	ldr	r2, [pc, #24]	; (8001ea0 <HAL_InitTick+0x5c>)
 8001e86:	687b      	ldr	r3, [r7, #4]
 8001e88:	6013      	str	r3, [r2, #0]
  {
    return HAL_ERROR;
  }

  /* Return function status */
  return HAL_OK;
 8001e8a:	2300      	movs	r3, #0
 8001e8c:	e000      	b.n	8001e90 <HAL_InitTick+0x4c>
    return HAL_ERROR;
 8001e8e:	2301      	movs	r3, #1
}
 8001e90:	4618      	mov	r0, r3
 8001e92:	3708      	adds	r7, #8
 8001e94:	46bd      	mov	sp, r7
 8001e96:	bd80      	pop	{r7, pc}
 8001e98:	2000009c 	.word	0x2000009c
 8001e9c:	200000a4 	.word	0x200000a4
 8001ea0:	200000a0 	.word	0x200000a0

08001ea4 <HAL_IncTick>:
  * @note This function is declared as __weak to be overwritten in case of other
  *      implementations in user file.
  * @retval None
  */
__weak void HAL_IncTick(void)
{
 8001ea4:	b480      	push	{r7}
 8001ea6:	af00      	add	r7, sp, #0
  uwTick += uwTickFreq;
 8001ea8:	4b05      	ldr	r3, [pc, #20]	; (8001ec0 <HAL_IncTick+0x1c>)
 8001eaa:	781b      	ldrb	r3, [r3, #0]
 8001eac:	461a      	mov	r2, r3
 8001eae:	4b05      	ldr	r3, [pc, #20]	; (8001ec4 <HAL_IncTick+0x20>)
 8001eb0:	681b      	ldr	r3, [r3, #0]
 8001eb2:	4413      	add	r3, r2
 8001eb4:	4a03      	ldr	r2, [pc, #12]	; (8001ec4 <HAL_IncTick+0x20>)
 8001eb6:	6013      	str	r3, [r2, #0]
}
 8001eb8:	bf00      	nop
 8001eba:	46bd      	mov	sp, r7
 8001ebc:	bc80      	pop	{r7}
 8001ebe:	4770      	bx	lr
 8001ec0:	200000a4 	.word	0x200000a4
 8001ec4:	20000194 	.word	0x20000194

08001ec8 <HAL_GetTick>:
  * @note  This function is declared as __weak to be overwritten in case of other
  *       implementations in user file.
  * @retval tick value
  */
__weak uint32_t HAL_GetTick(void)
{
 8001ec8:	b480      	push	{r7}
 8001eca:	af00      	add	r7, sp, #0
  return uwTick;
 8001ecc:	4b02      	ldr	r3, [pc, #8]	; (8001ed8 <HAL_GetTick+0x10>)
 8001ece:	681b      	ldr	r3, [r3, #0]
}
 8001ed0:	4618      	mov	r0, r3
 8001ed2:	46bd      	mov	sp, r7
 8001ed4:	bc80      	pop	{r7}
 8001ed6:	4770      	bx	lr
 8001ed8:	20000194 	.word	0x20000194

08001edc <HAL_Delay>:
  *       implementations in user file.
  * @param Delay specifies the delay time length, in milliseconds.
  * @retval None
  */
__weak void HAL_Delay(uint32_t Delay)
{
 8001edc:	b580      	push	{r7, lr}
 8001ede:	b084      	sub	sp, #16
 8001ee0:	af00      	add	r7, sp, #0
 8001ee2:	6078      	str	r0, [r7, #4]
  uint32_t tickstart = HAL_GetTick();
 8001ee4:	f7ff fff0 	bl	8001ec8 <HAL_GetTick>
 8001ee8:	60b8      	str	r0, [r7, #8]
  uint32_t wait = Delay;
 8001eea:	687b      	ldr	r3, [r7, #4]
 8001eec:	60fb      	str	r3, [r7, #12]

  /* Add a freq to guarantee minimum wait */
  if (wait < HAL_MAX_DELAY)
 8001eee:	68fb      	ldr	r3, [r7, #12]
 8001ef0:	f1b3 3fff 	cmp.w	r3, #4294967295	; 0xffffffff
 8001ef4:	d005      	beq.n	8001f02 <HAL_Delay+0x26>
  {
    wait += (uint32_t)(uwTickFreq);
 8001ef6:	4b0a      	ldr	r3, [pc, #40]	; (8001f20 <HAL_Delay+0x44>)
 8001ef8:	781b      	ldrb	r3, [r3, #0]
 8001efa:	461a      	mov	r2, r3
 8001efc:	68fb      	ldr	r3, [r7, #12]
 8001efe:	4413      	add	r3, r2
 8001f00:	60fb      	str	r3, [r7, #12]
  }

  while ((HAL_GetTick() - tickstart) < wait)
 8001f02:	bf00      	nop
 8001f04:	f7ff ffe0 	bl	8001ec8 <HAL_GetTick>
 8001f08:	4602      	mov	r2, r0
 8001f0a:	68bb      	ldr	r3, [r7, #8]
 8001f0c:	1ad3      	subs	r3, r2, r3
 8001f0e:	68fa      	ldr	r2, [r7, #12]
 8001f10:	429a      	cmp	r2, r3
 8001f12:	d8f7      	bhi.n	8001f04 <HAL_Delay+0x28>
  {
  }
}
 8001f14:	bf00      	nop
 8001f16:	bf00      	nop
 8001f18:	3710      	adds	r7, #16
 8001f1a:	46bd      	mov	sp, r7
 8001f1c:	bd80      	pop	{r7, pc}
 8001f1e:	bf00      	nop
 8001f20:	200000a4 	.word	0x200000a4

08001f24 <NVIC_SetPriorityGrouping>:
           In case of a conflict between priority grouping and available
           priority bits (__NVIC_PRIO_BITS), the smallest possible priority group is set.
  \param [in]      PriorityGroup  Priority grouping field.
 */
__STATIC_INLINE void NVIC_SetPriorityGrouping(uint32_t PriorityGroup)
{
 8001f24:	b480      	push	{r7}
 8001f26:	b085      	sub	sp, #20
 8001f28:	af00      	add	r7, sp, #0
 8001f2a:	6078      	str	r0, [r7, #4]
  uint32_t reg_value;
  uint32_t PriorityGroupTmp = (PriorityGroup & (uint32_t)0x07UL);             /* only values 0..7 are used          */
 8001f2c:	687b      	ldr	r3, [r7, #4]
 8001f2e:	f003 0307 	and.w	r3, r3, #7
 8001f32:	60fb      	str	r3, [r7, #12]

  reg_value  =  SCB->AIRCR;                                                   /* read old register configuration    */
 8001f34:	4b0c      	ldr	r3, [pc, #48]	; (8001f68 <NVIC_SetPriorityGrouping+0x44>)
 8001f36:	68db      	ldr	r3, [r3, #12]
 8001f38:	60bb      	str	r3, [r7, #8]
  reg_value &= ~((uint32_t)(SCB_AIRCR_VECTKEY_Msk | SCB_AIRCR_PRIGROUP_Msk)); /* clear bits to change               */
 8001f3a:	68ba      	ldr	r2, [r7, #8]
 8001f3c:	f64f 03ff 	movw	r3, #63743	; 0xf8ff
 8001f40:	4013      	ands	r3, r2
 8001f42:	60bb      	str	r3, [r7, #8]
  reg_value  =  (reg_value                                   |
                ((uint32_t)0x5FAUL << SCB_AIRCR_VECTKEY_Pos) |
                (PriorityGroupTmp << 8U)                      );              /* Insert write key and priorty group */
 8001f44:	68fb      	ldr	r3, [r7, #12]
 8001f46:	021a      	lsls	r2, r3, #8
                ((uint32_t)0x5FAUL << SCB_AIRCR_VECTKEY_Pos) |
 8001f48:	68bb      	ldr	r3, [r7, #8]
 8001f4a:	4313      	orrs	r3, r2
  reg_value  =  (reg_value                                   |
 8001f4c:	f043 63bf 	orr.w	r3, r3, #100139008	; 0x5f80000
 8001f50:	f443 3300 	orr.w	r3, r3, #131072	; 0x20000
 8001f54:	60bb      	str	r3, [r7, #8]
  SCB->AIRCR =  reg_value;
 8001f56:	4a04      	ldr	r2, [pc, #16]	; (8001f68 <NVIC_SetPriorityGrouping+0x44>)
 8001f58:	68bb      	ldr	r3, [r7, #8]
 8001f5a:	60d3      	str	r3, [r2, #12]
}
 8001f5c:	bf00      	nop
 8001f5e:	3714      	adds	r7, #20
 8001f60:	46bd      	mov	sp, r7
 8001f62:	bc80      	pop	{r7}
 8001f64:	4770      	bx	lr
 8001f66:	bf00      	nop
 8001f68:	e000ed00 	.word	0xe000ed00

08001f6c <NVIC_GetPriorityGrouping>:
  \brief   Get Priority Grouping
  \details Reads the priority grouping field from the NVIC Interrupt Controller.
  \return                Priority grouping field (SCB->AIRCR [10:8] PRIGROUP field).
 */
__STATIC_INLINE uint32_t NVIC_GetPriorityGrouping(void)
{
 8001f6c:	b480      	push	{r7}
 8001f6e:	af00      	add	r7, sp, #0
  return ((uint32_t)((SCB->AIRCR & SCB_AIRCR_PRIGROUP_Msk) >> SCB_AIRCR_PRIGROUP_Pos));
 8001f70:	4b04      	ldr	r3, [pc, #16]	; (8001f84 <NVIC_GetPriorityGrouping+0x18>)
 8001f72:	68db      	ldr	r3, [r3, #12]
 8001f74:	0a1b      	lsrs	r3, r3, #8
 8001f76:	f003 0307 	and.w	r3, r3, #7
}
 8001f7a:	4618      	mov	r0, r3
 8001f7c:	46bd      	mov	sp, r7
 8001f7e:	bc80      	pop	{r7}
 8001f80:	4770      	bx	lr
 8001f82:	bf00      	nop
 8001f84:	e000ed00 	.word	0xe000ed00

08001f88 <NVIC_EnableIRQ>:
  \brief   Enable External Interrupt
  \details Enables a device-specific interrupt in the NVIC interrupt controller.
  \param [in]      IRQn  External interrupt number. Value cannot be negative.
 */
__STATIC_INLINE void NVIC_EnableIRQ(IRQn_Type IRQn)
{
 8001f88:	b480      	push	{r7}
 8001f8a:	b083      	sub	sp, #12
 8001f8c:	af00      	add	r7, sp, #0
 8001f8e:	4603      	mov	r3, r0
 8001f90:	71fb      	strb	r3, [r7, #7]
  NVIC->ISER[(((uint32_t)(int32_t)IRQn) >> 5UL)] = (uint32_t)(1UL << (((uint32_t)(int32_t)IRQn) & 0x1FUL));
 8001f92:	79fb      	ldrb	r3, [r7, #7]
 8001f94:	f003 021f 	and.w	r2, r3, #31
 8001f98:	4906      	ldr	r1, [pc, #24]	; (8001fb4 <NVIC_EnableIRQ+0x2c>)
 8001f9a:	f997 3007 	ldrsb.w	r3, [r7, #7]
 8001f9e:	095b      	lsrs	r3, r3, #5
 8001fa0:	2001      	movs	r0, #1
 8001fa2:	fa00 f202 	lsl.w	r2, r0, r2
 8001fa6:	f841 2023 	str.w	r2, [r1, r3, lsl #2]
}
 8001faa:	bf00      	nop
 8001fac:	370c      	adds	r7, #12
 8001fae:	46bd      	mov	sp, r7
 8001fb0:	bc80      	pop	{r7}
 8001fb2:	4770      	bx	lr
 8001fb4:	e000e100 	.word	0xe000e100

08001fb8 <NVIC_SetPriority>:
  \note    The priority cannot be set for every core interrupt.
  \param [in]      IRQn  Interrupt number.
  \param [in]  priority  Priority to set.
 */
__STATIC_INLINE void NVIC_SetPriority(IRQn_Type IRQn, uint32_t priority)
{
 8001fb8:	b480      	push	{r7}
 8001fba:	b083      	sub	sp, #12
 8001fbc:	af00      	add	r7, sp, #0
 8001fbe:	4603      	mov	r3, r0
 8001fc0:	6039      	str	r1, [r7, #0]
 8001fc2:	71fb      	strb	r3, [r7, #7]
  if ((int32_t)(IRQn) < 0)
 8001fc4:	f997 3007 	ldrsb.w	r3, [r7, #7]
 8001fc8:	2b00      	cmp	r3, #0
 8001fca:	da0b      	bge.n	8001fe4 <NVIC_SetPriority+0x2c>
  {
    SCB->SHP[(((uint32_t)(int32_t)IRQn) & 0xFUL)-4UL] = (uint8_t)((priority << (8U - __NVIC_PRIO_BITS)) & (uint32_t)0xFFUL);
 8001fcc:	683b      	ldr	r3, [r7, #0]
 8001fce:	b2da      	uxtb	r2, r3
 8001fd0:	490c      	ldr	r1, [pc, #48]	; (8002004 <NVIC_SetPriority+0x4c>)
 8001fd2:	79fb      	ldrb	r3, [r7, #7]
 8001fd4:	f003 030f 	and.w	r3, r3, #15
 8001fd8:	3b04      	subs	r3, #4
 8001fda:	0112      	lsls	r2, r2, #4
 8001fdc:	b2d2      	uxtb	r2, r2
 8001fde:	440b      	add	r3, r1
 8001fe0:	761a      	strb	r2, [r3, #24]
  }
  else
  {
    NVIC->IP[((uint32_t)(int32_t)IRQn)]               = (uint8_t)((priority << (8U - __NVIC_PRIO_BITS)) & (uint32_t)0xFFUL);
  }
}
 8001fe2:	e009      	b.n	8001ff8 <NVIC_SetPriority+0x40>
    NVIC->IP[((uint32_t)(int32_t)IRQn)]               = (uint8_t)((priority << (8U - __NVIC_PRIO_BITS)) & (uint32_t)0xFFUL);
 8001fe4:	683b      	ldr	r3, [r7, #0]
 8001fe6:	b2da      	uxtb	r2, r3
 8001fe8:	4907      	ldr	r1, [pc, #28]	; (8002008 <NVIC_SetPriority+0x50>)
 8001fea:	f997 3007 	ldrsb.w	r3, [r7, #7]
 8001fee:	0112      	lsls	r2, r2, #4
 8001ff0:	b2d2      	uxtb	r2, r2
 8001ff2:	440b      	add	r3, r1
 8001ff4:	f883 2300 	strb.w	r2, [r3, #768]	; 0x300
}
 8001ff8:	bf00      	nop
 8001ffa:	370c      	adds	r7, #12
 8001ffc:	46bd      	mov	sp, r7
 8001ffe:	bc80      	pop	{r7}
 8002000:	4770      	bx	lr
 8002002:	bf00      	nop
 8002004:	e000ed00 	.word	0xe000ed00
 8002008:	e000e100 	.word	0xe000e100

0800200c <NVIC_EncodePriority>:
  \param [in]   PreemptPriority  Preemptive priority value (starting from 0).
  \param [in]       SubPriority  Subpriority value (starting from 0).
  \return                        Encoded priority. Value can be used in the function \ref NVIC_SetPriority().
 */
__STATIC_INLINE uint32_t NVIC_EncodePriority (uint32_t PriorityGroup, uint32_t PreemptPriority, uint32_t SubPriority)
{
 800200c:	b480      	push	{r7}
 800200e:	b089      	sub	sp, #36	; 0x24
 8002010:	af00      	add	r7, sp, #0
 8002012:	60f8      	str	r0, [r7, #12]
 8002014:	60b9      	str	r1, [r7, #8]
 8002016:	607a      	str	r2, [r7, #4]
  uint32_t PriorityGroupTmp = (PriorityGroup & (uint32_t)0x07UL);   /* only values 0..7 are used          */
 8002018:	68fb      	ldr	r3, [r7, #12]
 800201a:	f003 0307 	and.w	r3, r3, #7
 800201e:	61fb      	str	r3, [r7, #28]
  uint32_t PreemptPriorityBits;
  uint32_t SubPriorityBits;

  PreemptPriorityBits = ((7UL - PriorityGroupTmp) > (uint32_t)(__NVIC_PRIO_BITS)) ? (uint32_t)(__NVIC_PRIO_BITS) : (uint32_t)(7UL - PriorityGroupTmp);
 8002020:	69fb      	ldr	r3, [r7, #28]
 8002022:	f1c3 0307 	rsb	r3, r3, #7
 8002026:	2b04      	cmp	r3, #4
 8002028:	bf28      	it	cs
 800202a:	2304      	movcs	r3, #4
 800202c:	61bb      	str	r3, [r7, #24]
  SubPriorityBits     = ((PriorityGroupTmp + (uint32_t)(__NVIC_PRIO_BITS)) < (uint32_t)7UL) ? (uint32_t)0UL : (uint32_t)((PriorityGroupTmp - 7UL) + (uint32_t)(__NVIC_PRIO_BITS));
 800202e:	69fb      	ldr	r3, [r7, #28]
 8002030:	3304      	adds	r3, #4
 8002032:	2b06      	cmp	r3, #6
 8002034:	d902      	bls.n	800203c <NVIC_EncodePriority+0x30>
 8002036:	69fb      	ldr	r3, [r7, #28]
 8002038:	3b03      	subs	r3, #3
 800203a:	e000      	b.n	800203e <NVIC_EncodePriority+0x32>
 800203c:	2300      	movs	r3, #0
 800203e:	617b      	str	r3, [r7, #20]

  return (
           ((PreemptPriority & (uint32_t)((1UL << (PreemptPriorityBits)) - 1UL)) << SubPriorityBits) |
 8002040:	f04f 32ff 	mov.w	r2, #4294967295	; 0xffffffff
 8002044:	69bb      	ldr	r3, [r7, #24]
 8002046:	fa02 f303 	lsl.w	r3, r2, r3
 800204a:	43da      	mvns	r2, r3
 800204c:	68bb      	ldr	r3, [r7, #8]
 800204e:	401a      	ands	r2, r3
 8002050:	697b      	ldr	r3, [r7, #20]
 8002052:	409a      	lsls	r2, r3
           ((SubPriority     & (uint32_t)((1UL << (SubPriorityBits    )) - 1UL)))
 8002054:	f04f 31ff 	mov.w	r1, #4294967295	; 0xffffffff
 8002058:	697b      	ldr	r3, [r7, #20]
 800205a:	fa01 f303 	lsl.w	r3, r1, r3
 800205e:	43d9      	mvns	r1, r3
 8002060:	687b      	ldr	r3, [r7, #4]
 8002062:	400b      	ands	r3, r1
           ((PreemptPriority & (uint32_t)((1UL << (PreemptPriorityBits)) - 1UL)) << SubPriorityBits) |
 8002064:	4313      	orrs	r3, r2
         );
}
 8002066:	4618      	mov	r0, r3
 8002068:	3724      	adds	r7, #36	; 0x24
 800206a:	46bd      	mov	sp, r7
 800206c:	bc80      	pop	{r7}
 800206e:	4770      	bx	lr

08002070 <SysTick_Config>:
  \note    When the variable <b>__Vendor_SysTickConfig</b> is set to 1, then the
           function <b>SysTick_Config</b> is not included. In this case, the file <b><i>device</i>.h</b>
           must contain a vendor-specific implementation of this function.
 */
__STATIC_INLINE uint32_t SysTick_Config(uint32_t ticks)
{
 8002070:	b580      	push	{r7, lr}
 8002072:	b082      	sub	sp, #8
 8002074:	af00      	add	r7, sp, #0
 8002076:	6078      	str	r0, [r7, #4]
  if ((ticks - 1UL) > SysTick_LOAD_RELOAD_Msk)
 8002078:	687b      	ldr	r3, [r7, #4]
 800207a:	3b01      	subs	r3, #1
 800207c:	f1b3 7f80 	cmp.w	r3, #16777216	; 0x1000000
 8002080:	d301      	bcc.n	8002086 <SysTick_Config+0x16>
  {
    return (1UL);                                                   /* Reload value impossible */
 8002082:	2301      	movs	r3, #1
 8002084:	e00f      	b.n	80020a6 <SysTick_Config+0x36>
  }

  SysTick->LOAD  = (uint32_t)(ticks - 1UL);                         /* set reload register */
 8002086:	4a0a      	ldr	r2, [pc, #40]	; (80020b0 <SysTick_Config+0x40>)
 8002088:	687b      	ldr	r3, [r7, #4]
 800208a:	3b01      	subs	r3, #1
 800208c:	6053      	str	r3, [r2, #4]
  NVIC_SetPriority (SysTick_IRQn, (1UL << __NVIC_PRIO_BITS) - 1UL); /* set Priority for Systick Interrupt */
 800208e:	210f      	movs	r1, #15
 8002090:	f04f 30ff 	mov.w	r0, #4294967295	; 0xffffffff
 8002094:	f7ff ff90 	bl	8001fb8 <NVIC_SetPriority>
  SysTick->VAL   = 0UL;                                             /* Load the SysTick Counter Value */
 8002098:	4b05      	ldr	r3, [pc, #20]	; (80020b0 <SysTick_Config+0x40>)
 800209a:	2200      	movs	r2, #0
 800209c:	609a      	str	r2, [r3, #8]
  SysTick->CTRL  = SysTick_CTRL_CLKSOURCE_Msk |
 800209e:	4b04      	ldr	r3, [pc, #16]	; (80020b0 <SysTick_Config+0x40>)
 80020a0:	2207      	movs	r2, #7
 80020a2:	601a      	str	r2, [r3, #0]
                   SysTick_CTRL_TICKINT_Msk   |
                   SysTick_CTRL_ENABLE_Msk;                         /* Enable SysTick IRQ and SysTick Timer */
  return (0UL);                                                     /* Function successful */
 80020a4:	2300      	movs	r3, #0
}
 80020a6:	4618      	mov	r0, r3
 80020a8:	3708      	adds	r7, #8
 80020aa:	46bd      	mov	sp, r7
 80020ac:	bd80      	pop	{r7, pc}
 80020ae:	bf00      	nop
 80020b0:	e000e010 	.word	0xe000e010

080020b4 <HAL_NVIC_SetPriorityGrouping>:
  * @note   When the NVIC_PriorityGroup_0 is selected, IRQ preemption is no more possible. 
  *         The pending IRQ priority will be managed only by the subpriority. 
  * @retval None
  */
void HAL_NVIC_SetPriorityGrouping(uint32_t PriorityGroup)
{
 80020b4:	b580      	push	{r7, lr}
 80020b6:	b082      	sub	sp, #8
 80020b8:	af00      	add	r7, sp, #0
 80020ba:	6078      	str	r0, [r7, #4]
  /* Check the parameters */
  assert_param(IS_NVIC_PRIORITY_GROUP(PriorityGroup));
  
  /* Set the PRIGROUP[10:8] bits according to the PriorityGroup parameter value */
  NVIC_SetPriorityGrouping(PriorityGroup);
 80020bc:	6878      	ldr	r0, [r7, #4]
 80020be:	f7ff ff31 	bl	8001f24 <NVIC_SetPriorityGrouping>
}
 80020c2:	bf00      	nop
 80020c4:	3708      	adds	r7, #8
 80020c6:	46bd      	mov	sp, r7
 80020c8:	bd80      	pop	{r7, pc}

080020ca <HAL_NVIC_SetPriority>:
  *         This parameter can be a value between 0 and 15
  *         A lower priority value indicates a higher priority.          
  * @retval None
  */
void HAL_NVIC_SetPriority(IRQn_Type IRQn, uint32_t PreemptPriority, uint32_t SubPriority)
{ 
 80020ca:	b580      	push	{r7, lr}
 80020cc:	b086      	sub	sp, #24
 80020ce:	af00      	add	r7, sp, #0
 80020d0:	4603      	mov	r3, r0
 80020d2:	60b9      	str	r1, [r7, #8]
 80020d4:	607a      	str	r2, [r7, #4]
 80020d6:	73fb      	strb	r3, [r7, #15]
  uint32_t prioritygroup = 0x00U;
 80020d8:	2300      	movs	r3, #0
 80020da:	617b      	str	r3, [r7, #20]
  
  /* Check the parameters */
  assert_param(IS_NVIC_SUB_PRIORITY(SubPriority));
  assert_param(IS_NVIC_PREEMPTION_PRIORITY(PreemptPriority));
  
  prioritygroup = NVIC_GetPriorityGrouping();
 80020dc:	f7ff ff46 	bl	8001f6c <NVIC_GetPriorityGrouping>
 80020e0:	6178      	str	r0, [r7, #20]
  
  NVIC_SetPriority(IRQn, NVIC_EncodePriority(prioritygroup, PreemptPriority, SubPriority));
 80020e2:	687a      	ldr	r2, [r7, #4]
 80020e4:	68b9      	ldr	r1, [r7, #8]
 80020e6:	6978      	ldr	r0, [r7, #20]
 80020e8:	f7ff ff90 	bl	800200c <NVIC_EncodePriority>
 80020ec:	4602      	mov	r2, r0
 80020ee:	f997 300f 	ldrsb.w	r3, [r7, #15]
 80020f2:	4611      	mov	r1, r2
 80020f4:	4618      	mov	r0, r3
 80020f6:	f7ff ff5f 	bl	8001fb8 <NVIC_SetPriority>
}
 80020fa:	bf00      	nop
 80020fc:	3718      	adds	r7, #24
 80020fe:	46bd      	mov	sp, r7
 8002100:	bd80      	pop	{r7, pc}

08002102 <HAL_NVIC_EnableIRQ>:
  *         This parameter can be an enumerator of IRQn_Type enumeration
  *         (For the complete STM32 Devices IRQ Channels list, please refer to the appropriate CMSIS device file (stm32f10xxx.h))
  * @retval None
  */
void HAL_NVIC_EnableIRQ(IRQn_Type IRQn)
{
 8002102:	b580      	push	{r7, lr}
 8002104:	b082      	sub	sp, #8
 8002106:	af00      	add	r7, sp, #0
 8002108:	4603      	mov	r3, r0
 800210a:	71fb      	strb	r3, [r7, #7]
  /* Check the parameters */
  assert_param(IS_NVIC_DEVICE_IRQ(IRQn));

  /* Enable interrupt */
  NVIC_EnableIRQ(IRQn);
 800210c:	f997 3007 	ldrsb.w	r3, [r7, #7]
 8002110:	4618      	mov	r0, r3
 8002112:	f7ff ff39 	bl	8001f88 <NVIC_EnableIRQ>
}
 8002116:	bf00      	nop
 8002118:	3708      	adds	r7, #8
 800211a:	46bd      	mov	sp, r7
 800211c:	bd80      	pop	{r7, pc}

0800211e <HAL_SYSTICK_Config>:
  * @param  TicksNumb: Specifies the ticks Number of ticks between two interrupts.
  * @retval status:  - 0  Function succeeded.
  *                  - 1  Function failed.
  */
uint32_t HAL_SYSTICK_Config(uint32_t TicksNumb)
{
 800211e:	b580      	push	{r7, lr}
 8002120:	b082      	sub	sp, #8
 8002122:	af00      	add	r7, sp, #0
 8002124:	6078      	str	r0, [r7, #4]
   return SysTick_Config(TicksNumb);
 8002126:	6878      	ldr	r0, [r7, #4]
 8002128:	f7ff ffa2 	bl	8002070 <SysTick_Config>
 800212c:	4603      	mov	r3, r0
}
 800212e:	4618      	mov	r0, r3
 8002130:	3708      	adds	r7, #8
 8002132:	46bd      	mov	sp, r7
 8002134:	bd80      	pop	{r7, pc}
	...

08002138 <HAL_GPIO_Init>:
  * @param  GPIO_Init: pointer to a GPIO_InitTypeDef structure that contains
  *         the configuration information for the specified GPIO peripheral.
  * @retval None
  */
void HAL_GPIO_Init(GPIO_TypeDef  *GPIOx, GPIO_InitTypeDef *GPIO_Init)
{
 8002138:	b480      	push	{r7}
 800213a:	b08b      	sub	sp, #44	; 0x2c
 800213c:	af00      	add	r7, sp, #0
 800213e:	6078      	str	r0, [r7, #4]
 8002140:	6039      	str	r1, [r7, #0]
  uint32_t position;
  uint32_t ioposition = 0x00U;
 8002142:	2300      	movs	r3, #0
 8002144:	61fb      	str	r3, [r7, #28]
  uint32_t iocurrent = 0x00U;
 8002146:	2300      	movs	r3, #0
 8002148:	61bb      	str	r3, [r7, #24]
  uint32_t temp = 0x00U;
 800214a:	2300      	movs	r3, #0
 800214c:	617b      	str	r3, [r7, #20]
  uint32_t config = 0x00U;
 800214e:	2300      	movs	r3, #0
 8002150:	623b      	str	r3, [r7, #32]
  __IO uint32_t *configregister; /* Store the address of CRL or CRH register based on pin number */
  uint32_t registeroffset = 0U; /* offset used during computation of CNF and MODE bits placement inside CRL or CRH register */
 8002152:	2300      	movs	r3, #0
 8002154:	613b      	str	r3, [r7, #16]
  assert_param(IS_GPIO_ALL_INSTANCE(GPIOx));
  assert_param(IS_GPIO_PIN(GPIO_Init->Pin));
  assert_param(IS_GPIO_MODE(GPIO_Init->Mode));

  /* Configure the port pins */
  for (position = 0U; position < GPIO_NUMBER; position++)
 8002156:	2300      	movs	r3, #0
 8002158:	627b      	str	r3, [r7, #36]	; 0x24
 800215a:	e179      	b.n	8002450 <HAL_GPIO_Init+0x318>
  {
    /* Get the IO position */
    ioposition = (0x01U << position);
 800215c:	2201      	movs	r2, #1
 800215e:	6a7b      	ldr	r3, [r7, #36]	; 0x24
 8002160:	fa02 f303 	lsl.w	r3, r2, r3
 8002164:	61fb      	str	r3, [r7, #28]

    /* Get the current IO position */
    iocurrent = (uint32_t)(GPIO_Init->Pin) & ioposition;
 8002166:	683b      	ldr	r3, [r7, #0]
 8002168:	681b      	ldr	r3, [r3, #0]
 800216a:	69fa      	ldr	r2, [r7, #28]
 800216c:	4013      	ands	r3, r2
 800216e:	61bb      	str	r3, [r7, #24]

    if (iocurrent == ioposition)
 8002170:	69ba      	ldr	r2, [r7, #24]
 8002172:	69fb      	ldr	r3, [r7, #28]
 8002174:	429a      	cmp	r2, r3
 8002176:	f040 8168 	bne.w	800244a <HAL_GPIO_Init+0x312>
    {
      /* Check the Alternate function parameters */
      assert_param(IS_GPIO_AF_INSTANCE(GPIOx));

      /* Based on the required mode, filling config variable with MODEy[1:0] and CNFy[3:2] corresponding bits */
      switch (GPIO_Init->Mode)
 800217a:	683b      	ldr	r3, [r7, #0]
 800217c:	685b      	ldr	r3, [r3, #4]
 800217e:	4a96      	ldr	r2, [pc, #600]	; (80023d8 <HAL_GPIO_Init+0x2a0>)
 8002180:	4293      	cmp	r3, r2
 8002182:	d05e      	beq.n	8002242 <HAL_GPIO_Init+0x10a>
 8002184:	4a94      	ldr	r2, [pc, #592]	; (80023d8 <HAL_GPIO_Init+0x2a0>)
 8002186:	4293      	cmp	r3, r2
 8002188:	d875      	bhi.n	8002276 <HAL_GPIO_Init+0x13e>
 800218a:	4a94      	ldr	r2, [pc, #592]	; (80023dc <HAL_GPIO_Init+0x2a4>)
 800218c:	4293      	cmp	r3, r2
 800218e:	d058      	beq.n	8002242 <HAL_GPIO_Init+0x10a>
 8002190:	4a92      	ldr	r2, [pc, #584]	; (80023dc <HAL_GPIO_Init+0x2a4>)
 8002192:	4293      	cmp	r3, r2
 8002194:	d86f      	bhi.n	8002276 <HAL_GPIO_Init+0x13e>
 8002196:	4a92      	ldr	r2, [pc, #584]	; (80023e0 <HAL_GPIO_Init+0x2a8>)
 8002198:	4293      	cmp	r3, r2
 800219a:	d052      	beq.n	8002242 <HAL_GPIO_Init+0x10a>
 800219c:	4a90      	ldr	r2, [pc, #576]	; (80023e0 <HAL_GPIO_Init+0x2a8>)
 800219e:	4293      	cmp	r3, r2
 80021a0:	d869      	bhi.n	8002276 <HAL_GPIO_Init+0x13e>
 80021a2:	4a90      	ldr	r2, [pc, #576]	; (80023e4 <HAL_GPIO_Init+0x2ac>)
 80021a4:	4293      	cmp	r3, r2
 80021a6:	d04c      	beq.n	8002242 <HAL_GPIO_Init+0x10a>
 80021a8:	4a8e      	ldr	r2, [pc, #568]	; (80023e4 <HAL_GPIO_Init+0x2ac>)
 80021aa:	4293      	cmp	r3, r2
 80021ac:	d863      	bhi.n	8002276 <HAL_GPIO_Init+0x13e>
 80021ae:	4a8e      	ldr	r2, [pc, #568]	; (80023e8 <HAL_GPIO_Init+0x2b0>)
 80021b0:	4293      	cmp	r3, r2
 80021b2:	d046      	beq.n	8002242 <HAL_GPIO_Init+0x10a>
 80021b4:	4a8c      	ldr	r2, [pc, #560]	; (80023e8 <HAL_GPIO_Init+0x2b0>)
 80021b6:	4293      	cmp	r3, r2
 80021b8:	d85d      	bhi.n	8002276 <HAL_GPIO_Init+0x13e>
 80021ba:	2b12      	cmp	r3, #18
 80021bc:	d82a      	bhi.n	8002214 <HAL_GPIO_Init+0xdc>
 80021be:	2b12      	cmp	r3, #18
 80021c0:	d859      	bhi.n	8002276 <HAL_GPIO_Init+0x13e>
 80021c2:	a201      	add	r2, pc, #4	; (adr r2, 80021c8 <HAL_GPIO_Init+0x90>)
 80021c4:	f852 f023 	ldr.w	pc, [r2, r3, lsl #2]
 80021c8:	08002243 	.word	0x08002243
 80021cc:	0800221d 	.word	0x0800221d
 80021d0:	0800222f 	.word	0x0800222f
 80021d4:	08002271 	.word	0x08002271
 80021d8:	08002277 	.word	0x08002277
 80021dc:	08002277 	.word	0x08002277
 80021e0:	08002277 	.word	0x08002277
 80021e4:	08002277 	.word	0x08002277
 80021e8:	08002277 	.word	0x08002277
 80021ec:	08002277 	.word	0x08002277
 80021f0:	08002277 	.word	0x08002277
 80021f4:	08002277 	.word	0x08002277
 80021f8:	08002277 	.word	0x08002277
 80021fc:	08002277 	.word	0x08002277
 8002200:	08002277 	.word	0x08002277
 8002204:	08002277 	.word	0x08002277
 8002208:	08002277 	.word	0x08002277
 800220c:	08002225 	.word	0x08002225
 8002210:	08002239 	.word	0x08002239
 8002214:	4a75      	ldr	r2, [pc, #468]	; (80023ec <HAL_GPIO_Init+0x2b4>)
 8002216:	4293      	cmp	r3, r2
 8002218:	d013      	beq.n	8002242 <HAL_GPIO_Init+0x10a>
          config = GPIO_CR_MODE_INPUT + GPIO_CR_CNF_ANALOG;
          break;

        /* Parameters are checked with assert_param */
        default:
          break;
 800221a:	e02c      	b.n	8002276 <HAL_GPIO_Init+0x13e>
          config = GPIO_Init->Speed + GPIO_CR_CNF_GP_OUTPUT_PP;
 800221c:	683b      	ldr	r3, [r7, #0]
 800221e:	68db      	ldr	r3, [r3, #12]
 8002220:	623b      	str	r3, [r7, #32]
          break;
 8002222:	e029      	b.n	8002278 <HAL_GPIO_Init+0x140>
          config = GPIO_Init->Speed + GPIO_CR_CNF_GP_OUTPUT_OD;
 8002224:	683b      	ldr	r3, [r7, #0]
 8002226:	68db      	ldr	r3, [r3, #12]
 8002228:	3304      	adds	r3, #4
 800222a:	623b      	str	r3, [r7, #32]
          break;
 800222c:	e024      	b.n	8002278 <HAL_GPIO_Init+0x140>
          config = GPIO_Init->Speed + GPIO_CR_CNF_AF_OUTPUT_PP;
 800222e:	683b      	ldr	r3, [r7, #0]
 8002230:	68db      	ldr	r3, [r3, #12]
 8002232:	3308      	adds	r3, #8
 8002234:	623b      	str	r3, [r7, #32]
          break;
 8002236:	e01f      	b.n	8002278 <HAL_GPIO_Init+0x140>
          config = GPIO_Init->Speed + GPIO_CR_CNF_AF_OUTPUT_OD;
 8002238:	683b      	ldr	r3, [r7, #0]
 800223a:	68db      	ldr	r3, [r3, #12]
 800223c:	330c      	adds	r3, #12
 800223e:	623b      	str	r3, [r7, #32]
          break;
 8002240:	e01a      	b.n	8002278 <HAL_GPIO_Init+0x140>
          if (GPIO_Init->Pull == GPIO_NOPULL)
 8002242:	683b      	ldr	r3, [r7, #0]
 8002244:	689b      	ldr	r3, [r3, #8]
 8002246:	2b00      	cmp	r3, #0
 8002248:	d102      	bne.n	8002250 <HAL_GPIO_Init+0x118>
            config = GPIO_CR_MODE_INPUT + GPIO_CR_CNF_INPUT_FLOATING;
 800224a:	2304      	movs	r3, #4
 800224c:	623b      	str	r3, [r7, #32]
          break;
 800224e:	e013      	b.n	8002278 <HAL_GPIO_Init+0x140>
          else if (GPIO_Init->Pull == GPIO_PULLUP)
 8002250:	683b      	ldr	r3, [r7, #0]
 8002252:	689b      	ldr	r3, [r3, #8]
 8002254:	2b01      	cmp	r3, #1
 8002256:	d105      	bne.n	8002264 <HAL_GPIO_Init+0x12c>
            config = GPIO_CR_MODE_INPUT + GPIO_CR_CNF_INPUT_PU_PD;
 8002258:	2308      	movs	r3, #8
 800225a:	623b      	str	r3, [r7, #32]
            GPIOx->BSRR = ioposition;
 800225c:	687b      	ldr	r3, [r7, #4]
 800225e:	69fa      	ldr	r2, [r7, #28]
 8002260:	611a      	str	r2, [r3, #16]
          break;
 8002262:	e009      	b.n	8002278 <HAL_GPIO_Init+0x140>
            config = GPIO_CR_MODE_INPUT + GPIO_CR_CNF_INPUT_PU_PD;
 8002264:	2308      	movs	r3, #8
 8002266:	623b      	str	r3, [r7, #32]
            GPIOx->BRR = ioposition;
 8002268:	687b      	ldr	r3, [r7, #4]
 800226a:	69fa      	ldr	r2, [r7, #28]
 800226c:	615a      	str	r2, [r3, #20]
          break;
 800226e:	e003      	b.n	8002278 <HAL_GPIO_Init+0x140>
          config = GPIO_CR_MODE_INPUT + GPIO_CR_CNF_ANALOG;
 8002270:	2300      	movs	r3, #0
 8002272:	623b      	str	r3, [r7, #32]
          break;
 8002274:	e000      	b.n	8002278 <HAL_GPIO_Init+0x140>
          break;
 8002276:	bf00      	nop
      }

      /* Check if the current bit belongs to first half or last half of the pin count number
       in order to address CRH or CRL register*/
      configregister = (iocurrent < GPIO_PIN_8) ? &GPIOx->CRL     : &GPIOx->CRH;
 8002278:	69bb      	ldr	r3, [r7, #24]
 800227a:	2bff      	cmp	r3, #255	; 0xff
 800227c:	d801      	bhi.n	8002282 <HAL_GPIO_Init+0x14a>
 800227e:	687b      	ldr	r3, [r7, #4]
 8002280:	e001      	b.n	8002286 <HAL_GPIO_Init+0x14e>
 8002282:	687b      	ldr	r3, [r7, #4]
 8002284:	3304      	adds	r3, #4
 8002286:	60fb      	str	r3, [r7, #12]
      registeroffset = (iocurrent < GPIO_PIN_8) ? (position << 2U) : ((position - 8U) << 2U);
 8002288:	69bb      	ldr	r3, [r7, #24]
 800228a:	2bff      	cmp	r3, #255	; 0xff
 800228c:	d802      	bhi.n	8002294 <HAL_GPIO_Init+0x15c>
 800228e:	6a7b      	ldr	r3, [r7, #36]	; 0x24
 8002290:	009b      	lsls	r3, r3, #2
 8002292:	e002      	b.n	800229a <HAL_GPIO_Init+0x162>
 8002294:	6a7b      	ldr	r3, [r7, #36]	; 0x24
 8002296:	3b08      	subs	r3, #8
 8002298:	009b      	lsls	r3, r3, #2
 800229a:	613b      	str	r3, [r7, #16]

      /* Apply the new configuration of the pin to the register */
      MODIFY_REG((*configregister), ((GPIO_CRL_MODE0 | GPIO_CRL_CNF0) << registeroffset), (config << registeroffset));
 800229c:	68fb      	ldr	r3, [r7, #12]
 800229e:	681a      	ldr	r2, [r3, #0]
 80022a0:	210f      	movs	r1, #15
 80022a2:	693b      	ldr	r3, [r7, #16]
 80022a4:	fa01 f303 	lsl.w	r3, r1, r3
 80022a8:	43db      	mvns	r3, r3
 80022aa:	401a      	ands	r2, r3
 80022ac:	6a39      	ldr	r1, [r7, #32]
 80022ae:	693b      	ldr	r3, [r7, #16]
 80022b0:	fa01 f303 	lsl.w	r3, r1, r3
 80022b4:	431a      	orrs	r2, r3
 80022b6:	68fb      	ldr	r3, [r7, #12]
 80022b8:	601a      	str	r2, [r3, #0]

      /*--------------------- EXTI Mode Configuration ------------------------*/
      /* Configure the External Interrupt or event for the current IO */
      if ((GPIO_Init->Mode & EXTI_MODE) == EXTI_MODE)
 80022ba:	683b      	ldr	r3, [r7, #0]
 80022bc:	685b      	ldr	r3, [r3, #4]
 80022be:	f003 5380 	and.w	r3, r3, #268435456	; 0x10000000
 80022c2:	2b00      	cmp	r3, #0
 80022c4:	f000 80c1 	beq.w	800244a <HAL_GPIO_Init+0x312>
      {
        /* Enable AFIO Clock */
        __HAL_RCC_AFIO_CLK_ENABLE();
 80022c8:	4b49      	ldr	r3, [pc, #292]	; (80023f0 <HAL_GPIO_Init+0x2b8>)
 80022ca:	699b      	ldr	r3, [r3, #24]
 80022cc:	4a48      	ldr	r2, [pc, #288]	; (80023f0 <HAL_GPIO_Init+0x2b8>)
 80022ce:	f043 0301 	orr.w	r3, r3, #1
 80022d2:	6193      	str	r3, [r2, #24]
 80022d4:	4b46      	ldr	r3, [pc, #280]	; (80023f0 <HAL_GPIO_Init+0x2b8>)
 80022d6:	699b      	ldr	r3, [r3, #24]
 80022d8:	f003 0301 	and.w	r3, r3, #1
 80022dc:	60bb      	str	r3, [r7, #8]
 80022de:	68bb      	ldr	r3, [r7, #8]
        temp = AFIO->EXTICR[position >> 2U];
 80022e0:	4a44      	ldr	r2, [pc, #272]	; (80023f4 <HAL_GPIO_Init+0x2bc>)
 80022e2:	6a7b      	ldr	r3, [r7, #36]	; 0x24
 80022e4:	089b      	lsrs	r3, r3, #2
 80022e6:	3302      	adds	r3, #2
 80022e8:	f852 3023 	ldr.w	r3, [r2, r3, lsl #2]
 80022ec:	617b      	str	r3, [r7, #20]
        CLEAR_BIT(temp, (0x0FU) << (4U * (position & 0x03U)));
 80022ee:	6a7b      	ldr	r3, [r7, #36]	; 0x24
 80022f0:	f003 0303 	and.w	r3, r3, #3
 80022f4:	009b      	lsls	r3, r3, #2
 80022f6:	220f      	movs	r2, #15
 80022f8:	fa02 f303 	lsl.w	r3, r2, r3
 80022fc:	43db      	mvns	r3, r3
 80022fe:	697a      	ldr	r2, [r7, #20]
 8002300:	4013      	ands	r3, r2
 8002302:	617b      	str	r3, [r7, #20]
        SET_BIT(temp, (GPIO_GET_INDEX(GPIOx)) << (4U * (position & 0x03U)));
 8002304:	687b      	ldr	r3, [r7, #4]
 8002306:	4a3c      	ldr	r2, [pc, #240]	; (80023f8 <HAL_GPIO_Init+0x2c0>)
 8002308:	4293      	cmp	r3, r2
 800230a:	d01f      	beq.n	800234c <HAL_GPIO_Init+0x214>
 800230c:	687b      	ldr	r3, [r7, #4]
 800230e:	4a3b      	ldr	r2, [pc, #236]	; (80023fc <HAL_GPIO_Init+0x2c4>)
 8002310:	4293      	cmp	r3, r2
 8002312:	d019      	beq.n	8002348 <HAL_GPIO_Init+0x210>
 8002314:	687b      	ldr	r3, [r7, #4]
 8002316:	4a3a      	ldr	r2, [pc, #232]	; (8002400 <HAL_GPIO_Init+0x2c8>)
 8002318:	4293      	cmp	r3, r2
 800231a:	d013      	beq.n	8002344 <HAL_GPIO_Init+0x20c>
 800231c:	687b      	ldr	r3, [r7, #4]
 800231e:	4a39      	ldr	r2, [pc, #228]	; (8002404 <HAL_GPIO_Init+0x2cc>)
 8002320:	4293      	cmp	r3, r2
 8002322:	d00d      	beq.n	8002340 <HAL_GPIO_Init+0x208>
 8002324:	687b      	ldr	r3, [r7, #4]
 8002326:	4a38      	ldr	r2, [pc, #224]	; (8002408 <HAL_GPIO_Init+0x2d0>)
 8002328:	4293      	cmp	r3, r2
 800232a:	d007      	beq.n	800233c <HAL_GPIO_Init+0x204>
 800232c:	687b      	ldr	r3, [r7, #4]
 800232e:	4a37      	ldr	r2, [pc, #220]	; (800240c <HAL_GPIO_Init+0x2d4>)
 8002330:	4293      	cmp	r3, r2
 8002332:	d101      	bne.n	8002338 <HAL_GPIO_Init+0x200>
 8002334:	2305      	movs	r3, #5
 8002336:	e00a      	b.n	800234e <HAL_GPIO_Init+0x216>
 8002338:	2306      	movs	r3, #6
 800233a:	e008      	b.n	800234e <HAL_GPIO_Init+0x216>
 800233c:	2304      	movs	r3, #4
 800233e:	e006      	b.n	800234e <HAL_GPIO_Init+0x216>
 8002340:	2303      	movs	r3, #3
 8002342:	e004      	b.n	800234e <HAL_GPIO_Init+0x216>
 8002344:	2302      	movs	r3, #2
 8002346:	e002      	b.n	800234e <HAL_GPIO_Init+0x216>
 8002348:	2301      	movs	r3, #1
 800234a:	e000      	b.n	800234e <HAL_GPIO_Init+0x216>
 800234c:	2300      	movs	r3, #0
 800234e:	6a7a      	ldr	r2, [r7, #36]	; 0x24
 8002350:	f002 0203 	and.w	r2, r2, #3
 8002354:	0092      	lsls	r2, r2, #2
 8002356:	4093      	lsls	r3, r2
 8002358:	697a      	ldr	r2, [r7, #20]
 800235a:	4313      	orrs	r3, r2
 800235c:	617b      	str	r3, [r7, #20]
        AFIO->EXTICR[position >> 2U] = temp;
 800235e:	4925      	ldr	r1, [pc, #148]	; (80023f4 <HAL_GPIO_Init+0x2bc>)
 8002360:	6a7b      	ldr	r3, [r7, #36]	; 0x24
 8002362:	089b      	lsrs	r3, r3, #2
 8002364:	3302      	adds	r3, #2
 8002366:	697a      	ldr	r2, [r7, #20]
 8002368:	f841 2023 	str.w	r2, [r1, r3, lsl #2]


        /* Configure the interrupt mask */
        if ((GPIO_Init->Mode & GPIO_MODE_IT) == GPIO_MODE_IT)
 800236c:	683b      	ldr	r3, [r7, #0]
 800236e:	685b      	ldr	r3, [r3, #4]
 8002370:	f403 3380 	and.w	r3, r3, #65536	; 0x10000
 8002374:	2b00      	cmp	r3, #0
 8002376:	d006      	beq.n	8002386 <HAL_GPIO_Init+0x24e>
        {
          SET_BIT(EXTI->IMR, iocurrent);
 8002378:	4b25      	ldr	r3, [pc, #148]	; (8002410 <HAL_GPIO_Init+0x2d8>)
 800237a:	681a      	ldr	r2, [r3, #0]
 800237c:	4924      	ldr	r1, [pc, #144]	; (8002410 <HAL_GPIO_Init+0x2d8>)
 800237e:	69bb      	ldr	r3, [r7, #24]
 8002380:	4313      	orrs	r3, r2
 8002382:	600b      	str	r3, [r1, #0]
 8002384:	e006      	b.n	8002394 <HAL_GPIO_Init+0x25c>
        }
        else
        {
          CLEAR_BIT(EXTI->IMR, iocurrent);
 8002386:	4b22      	ldr	r3, [pc, #136]	; (8002410 <HAL_GPIO_Init+0x2d8>)
 8002388:	681a      	ldr	r2, [r3, #0]
 800238a:	69bb      	ldr	r3, [r7, #24]
 800238c:	43db      	mvns	r3, r3
 800238e:	4920      	ldr	r1, [pc, #128]	; (8002410 <HAL_GPIO_Init+0x2d8>)
 8002390:	4013      	ands	r3, r2
 8002392:	600b      	str	r3, [r1, #0]
        }

        /* Configure the event mask */
        if ((GPIO_Init->Mode & GPIO_MODE_EVT) == GPIO_MODE_EVT)
 8002394:	683b      	ldr	r3, [r7, #0]
 8002396:	685b      	ldr	r3, [r3, #4]
 8002398:	f403 3300 	and.w	r3, r3, #131072	; 0x20000
 800239c:	2b00      	cmp	r3, #0
 800239e:	d006      	beq.n	80023ae <HAL_GPIO_Init+0x276>
        {
          SET_BIT(EXTI->EMR, iocurrent);
 80023a0:	4b1b      	ldr	r3, [pc, #108]	; (8002410 <HAL_GPIO_Init+0x2d8>)
 80023a2:	685a      	ldr	r2, [r3, #4]
 80023a4:	491a      	ldr	r1, [pc, #104]	; (8002410 <HAL_GPIO_Init+0x2d8>)
 80023a6:	69bb      	ldr	r3, [r7, #24]
 80023a8:	4313      	orrs	r3, r2
 80023aa:	604b      	str	r3, [r1, #4]
 80023ac:	e006      	b.n	80023bc <HAL_GPIO_Init+0x284>
        }
        else
        {
          CLEAR_BIT(EXTI->EMR, iocurrent);
 80023ae:	4b18      	ldr	r3, [pc, #96]	; (8002410 <HAL_GPIO_Init+0x2d8>)
 80023b0:	685a      	ldr	r2, [r3, #4]
 80023b2:	69bb      	ldr	r3, [r7, #24]
 80023b4:	43db      	mvns	r3, r3
 80023b6:	4916      	ldr	r1, [pc, #88]	; (8002410 <HAL_GPIO_Init+0x2d8>)
 80023b8:	4013      	ands	r3, r2
 80023ba:	604b      	str	r3, [r1, #4]
        }

        /* Enable or disable the rising trigger */
        if ((GPIO_Init->Mode & RISING_EDGE) == RISING_EDGE)
 80023bc:	683b      	ldr	r3, [r7, #0]
 80023be:	685b      	ldr	r3, [r3, #4]
 80023c0:	f403 1380 	and.w	r3, r3, #1048576	; 0x100000
 80023c4:	2b00      	cmp	r3, #0
 80023c6:	d025      	beq.n	8002414 <HAL_GPIO_Init+0x2dc>
        {
          SET_BIT(EXTI->RTSR, iocurrent);
 80023c8:	4b11      	ldr	r3, [pc, #68]	; (8002410 <HAL_GPIO_Init+0x2d8>)
 80023ca:	689a      	ldr	r2, [r3, #8]
 80023cc:	4910      	ldr	r1, [pc, #64]	; (8002410 <HAL_GPIO_Init+0x2d8>)
 80023ce:	69bb      	ldr	r3, [r7, #24]
 80023d0:	4313      	orrs	r3, r2
 80023d2:	608b      	str	r3, [r1, #8]
 80023d4:	e025      	b.n	8002422 <HAL_GPIO_Init+0x2ea>
 80023d6:	bf00      	nop
 80023d8:	10320000 	.word	0x10320000
 80023dc:	10310000 	.word	0x10310000
 80023e0:	10220000 	.word	0x10220000
 80023e4:	10210000 	.word	0x10210000
 80023e8:	10120000 	.word	0x10120000
 80023ec:	10110000 	.word	0x10110000
 80023f0:	40021000 	.word	0x40021000
 80023f4:	40010000 	.word	0x40010000
 80023f8:	40010800 	.word	0x40010800
 80023fc:	40010c00 	.word	0x40010c00
 8002400:	40011000 	.word	0x40011000
 8002404:	40011400 	.word	0x40011400
 8002408:	40011800 	.word	0x40011800
 800240c:	40011c00 	.word	0x40011c00
 8002410:	40010400 	.word	0x40010400
        }
        else
        {
          CLEAR_BIT(EXTI->RTSR, iocurrent);
 8002414:	4b13      	ldr	r3, [pc, #76]	; (8002464 <HAL_GPIO_Init+0x32c>)
 8002416:	689a      	ldr	r2, [r3, #8]
 8002418:	69bb      	ldr	r3, [r7, #24]
 800241a:	43db      	mvns	r3, r3
 800241c:	4911      	ldr	r1, [pc, #68]	; (8002464 <HAL_GPIO_Init+0x32c>)
 800241e:	4013      	ands	r3, r2
 8002420:	608b      	str	r3, [r1, #8]
        }

        /* Enable or disable the falling trigger */
        if ((GPIO_Init->Mode & FALLING_EDGE) == FALLING_EDGE)
 8002422:	683b      	ldr	r3, [r7, #0]
 8002424:	685b      	ldr	r3, [r3, #4]
 8002426:	f403 1300 	and.w	r3, r3, #2097152	; 0x200000
 800242a:	2b00      	cmp	r3, #0
 800242c:	d006      	beq.n	800243c <HAL_GPIO_Init+0x304>
        {
          SET_BIT(EXTI->FTSR, iocurrent);
 800242e:	4b0d      	ldr	r3, [pc, #52]	; (8002464 <HAL_GPIO_Init+0x32c>)
 8002430:	68da      	ldr	r2, [r3, #12]
 8002432:	490c      	ldr	r1, [pc, #48]	; (8002464 <HAL_GPIO_Init+0x32c>)
 8002434:	69bb      	ldr	r3, [r7, #24]
 8002436:	4313      	orrs	r3, r2
 8002438:	60cb      	str	r3, [r1, #12]
 800243a:	e006      	b.n	800244a <HAL_GPIO_Init+0x312>
        }
        else
        {
          CLEAR_BIT(EXTI->FTSR, iocurrent);
 800243c:	4b09      	ldr	r3, [pc, #36]	; (8002464 <HAL_GPIO_Init+0x32c>)
 800243e:	68da      	ldr	r2, [r3, #12]
 8002440:	69bb      	ldr	r3, [r7, #24]
 8002442:	43db      	mvns	r3, r3
 8002444:	4907      	ldr	r1, [pc, #28]	; (8002464 <HAL_GPIO_Init+0x32c>)
 8002446:	4013      	ands	r3, r2
 8002448:	60cb      	str	r3, [r1, #12]
  for (position = 0U; position < GPIO_NUMBER; position++)
 800244a:	6a7b      	ldr	r3, [r7, #36]	; 0x24
 800244c:	3301      	adds	r3, #1
 800244e:	627b      	str	r3, [r7, #36]	; 0x24
 8002450:	6a7b      	ldr	r3, [r7, #36]	; 0x24
 8002452:	2b0f      	cmp	r3, #15
 8002454:	f67f ae82 	bls.w	800215c <HAL_GPIO_Init+0x24>
        }
      }
    }
  }
}
 8002458:	bf00      	nop
 800245a:	bf00      	nop
 800245c:	372c      	adds	r7, #44	; 0x2c
 800245e:	46bd      	mov	sp, r7
 8002460:	bc80      	pop	{r7}
 8002462:	4770      	bx	lr
 8002464:	40010400 	.word	0x40010400

08002468 <HAL_GPIO_ReadPin>:
  * @param  GPIO_Pin: specifies the port bit to read.
  *         This parameter can be GPIO_PIN_x where x can be (0..15).
  * @retval The input port pin value.
  */
GPIO_PinState HAL_GPIO_ReadPin(GPIO_TypeDef *GPIOx, uint16_t GPIO_Pin)
{
 8002468:	b480      	push	{r7}
 800246a:	b085      	sub	sp, #20
 800246c:	af00      	add	r7, sp, #0
 800246e:	6078      	str	r0, [r7, #4]
 8002470:	460b      	mov	r3, r1
 8002472:	807b      	strh	r3, [r7, #2]
  GPIO_PinState bitstatus;

  /* Check the parameters */
  assert_param(IS_GPIO_PIN(GPIO_Pin));

  if ((GPIOx->IDR & GPIO_Pin) != (uint32_t)GPIO_PIN_RESET)
 8002474:	687b      	ldr	r3, [r7, #4]
 8002476:	689a      	ldr	r2, [r3, #8]
 8002478:	887b      	ldrh	r3, [r7, #2]
 800247a:	4013      	ands	r3, r2
 800247c:	2b00      	cmp	r3, #0
 800247e:	d002      	beq.n	8002486 <HAL_GPIO_ReadPin+0x1e>
  {
    bitstatus = GPIO_PIN_SET;
 8002480:	2301      	movs	r3, #1
 8002482:	73fb      	strb	r3, [r7, #15]
 8002484:	e001      	b.n	800248a <HAL_GPIO_ReadPin+0x22>
  }
  else
  {
    bitstatus = GPIO_PIN_RESET;
 8002486:	2300      	movs	r3, #0
 8002488:	73fb      	strb	r3, [r7, #15]
  }
  return bitstatus;
 800248a:	7bfb      	ldrb	r3, [r7, #15]
}
 800248c:	4618      	mov	r0, r3
 800248e:	3714      	adds	r7, #20
 8002490:	46bd      	mov	sp, r7
 8002492:	bc80      	pop	{r7}
 8002494:	4770      	bx	lr

08002496 <HAL_GPIO_WritePin>:
  *            @arg GPIO_PIN_RESET: to clear the port pin
  *            @arg GPIO_PIN_SET: to set the port pin
  * @retval None
  */
void HAL_GPIO_WritePin(GPIO_TypeDef *GPIOx, uint16_t GPIO_Pin, GPIO_PinState PinState)
{
 8002496:	b480      	push	{r7}
 8002498:	b083      	sub	sp, #12
 800249a:	af00      	add	r7, sp, #0
 800249c:	6078      	str	r0, [r7, #4]
 800249e:	460b      	mov	r3, r1
 80024a0:	807b      	strh	r3, [r7, #2]
 80024a2:	4613      	mov	r3, r2
 80024a4:	707b      	strb	r3, [r7, #1]
  /* Check the parameters */
  assert_param(IS_GPIO_PIN(GPIO_Pin));
  assert_param(IS_GPIO_PIN_ACTION(PinState));

  if (PinState != GPIO_PIN_RESET)
 80024a6:	787b      	ldrb	r3, [r7, #1]
 80024a8:	2b00      	cmp	r3, #0
 80024aa:	d003      	beq.n	80024b4 <HAL_GPIO_WritePin+0x1e>
  {
    GPIOx->BSRR = GPIO_Pin;
 80024ac:	887a      	ldrh	r2, [r7, #2]
 80024ae:	687b      	ldr	r3, [r7, #4]
 80024b0:	611a      	str	r2, [r3, #16]
  }
  else
  {
    GPIOx->BSRR = (uint32_t)GPIO_Pin << 16U;
  }
}
 80024b2:	e003      	b.n	80024bc <HAL_GPIO_WritePin+0x26>
    GPIOx->BSRR = (uint32_t)GPIO_Pin << 16U;
 80024b4:	887b      	ldrh	r3, [r7, #2]
 80024b6:	041a      	lsls	r2, r3, #16
 80024b8:	687b      	ldr	r3, [r7, #4]
 80024ba:	611a      	str	r2, [r3, #16]
}
 80024bc:	bf00      	nop
 80024be:	370c      	adds	r7, #12
 80024c0:	46bd      	mov	sp, r7
 80024c2:	bc80      	pop	{r7}
 80024c4:	4770      	bx	lr
	...

080024c8 <HAL_GPIO_EXTI_IRQHandler>:
  * @brief  This function handles EXTI interrupt request.
  * @param  GPIO_Pin: Specifies the pins connected EXTI line
  * @retval None
  */
void HAL_GPIO_EXTI_IRQHandler(uint16_t GPIO_Pin)
{
 80024c8:	b580      	push	{r7, lr}
 80024ca:	b082      	sub	sp, #8
 80024cc:	af00      	add	r7, sp, #0
 80024ce:	4603      	mov	r3, r0
 80024d0:	80fb      	strh	r3, [r7, #6]
  /* EXTI line interrupt detected */
  if (__HAL_GPIO_EXTI_GET_IT(GPIO_Pin) != RESET)
 80024d2:	4b08      	ldr	r3, [pc, #32]	; (80024f4 <HAL_GPIO_EXTI_IRQHandler+0x2c>)
 80024d4:	695a      	ldr	r2, [r3, #20]
 80024d6:	88fb      	ldrh	r3, [r7, #6]
 80024d8:	4013      	ands	r3, r2
 80024da:	2b00      	cmp	r3, #0
 80024dc:	d006      	beq.n	80024ec <HAL_GPIO_EXTI_IRQHandler+0x24>
  {
    __HAL_GPIO_EXTI_CLEAR_IT(GPIO_Pin);
 80024de:	4a05      	ldr	r2, [pc, #20]	; (80024f4 <HAL_GPIO_EXTI_IRQHandler+0x2c>)
 80024e0:	88fb      	ldrh	r3, [r7, #6]
 80024e2:	6153      	str	r3, [r2, #20]
    HAL_GPIO_EXTI_Callback(GPIO_Pin);
 80024e4:	88fb      	ldrh	r3, [r7, #6]
 80024e6:	4618      	mov	r0, r3
 80024e8:	f000 f806 	bl	80024f8 <HAL_GPIO_EXTI_Callback>
  }
}
 80024ec:	bf00      	nop
 80024ee:	3708      	adds	r7, #8
 80024f0:	46bd      	mov	sp, r7
 80024f2:	bd80      	pop	{r7, pc}
 80024f4:	40010400 	.word	0x40010400

080024f8 <HAL_GPIO_EXTI_Callback>:
  * @brief  EXTI line detection callbacks.
  * @param  GPIO_Pin: Specifies the pins connected EXTI line
  * @retval None
  */
__weak void HAL_GPIO_EXTI_Callback(uint16_t GPIO_Pin)
{
 80024f8:	b480      	push	{r7}
 80024fa:	b083      	sub	sp, #12
 80024fc:	af00      	add	r7, sp, #0
 80024fe:	4603      	mov	r3, r0
 8002500:	80fb      	strh	r3, [r7, #6]
  /* Prevent unused argument(s) compilation warning */
  UNUSED(GPIO_Pin);
  /* NOTE: This function Should not be modified, when the callback is needed,
           the HAL_GPIO_EXTI_Callback could be implemented in the user file
   */
}
 8002502:	bf00      	nop
 8002504:	370c      	adds	r7, #12
 8002506:	46bd      	mov	sp, r7
 8002508:	bc80      	pop	{r7}
 800250a:	4770      	bx	lr

0800250c <HAL_RCC_OscConfig>:
  *         supported by this macro. User should request a transition to HSE Off
  *         first and then HSE On or HSE Bypass.
  * @retval HAL status
  */
HAL_StatusTypeDef HAL_RCC_OscConfig(RCC_OscInitTypeDef  *RCC_OscInitStruct)
{
 800250c:	b580      	push	{r7, lr}
 800250e:	b086      	sub	sp, #24
 8002510:	af00      	add	r7, sp, #0
 8002512:	6078      	str	r0, [r7, #4]
   uint32_t tickstart = 0U;
 8002514:	2300      	movs	r3, #0
 8002516:	613b      	str	r3, [r7, #16]
  /* Check the parameters */
  assert_param(RCC_OscInitStruct != NULL);
  assert_param(IS_RCC_OSCILLATORTYPE(RCC_OscInitStruct->OscillatorType));
  
  /*------------------------------- HSE Configuration ------------------------*/
  if(((RCC_OscInitStruct->OscillatorType) & RCC_OSCILLATORTYPE_HSE) == RCC_OSCILLATORTYPE_HSE)
 8002518:	687b      	ldr	r3, [r7, #4]
 800251a:	681b      	ldr	r3, [r3, #0]
 800251c:	f003 0301 	and.w	r3, r3, #1
 8002520:	2b00      	cmp	r3, #0
 8002522:	f000 8087 	beq.w	8002634 <HAL_RCC_OscConfig+0x128>
  {
    /* Check the parameters */
    assert_param(IS_RCC_HSE(RCC_OscInitStruct->HSEState));
        
    /* When the HSE is used as system clock or clock source for PLL in these cases it is not allowed to be disabled */
    if((__HAL_RCC_GET_SYSCLK_SOURCE() == RCC_SYSCLKSOURCE_STATUS_HSE) 
 8002526:	4b92      	ldr	r3, [pc, #584]	; (8002770 <HAL_RCC_OscConfig+0x264>)
 8002528:	685b      	ldr	r3, [r3, #4]
 800252a:	f003 030c 	and.w	r3, r3, #12
 800252e:	2b04      	cmp	r3, #4
 8002530:	d00c      	beq.n	800254c <HAL_RCC_OscConfig+0x40>
       || ((__HAL_RCC_GET_SYSCLK_SOURCE() == RCC_SYSCLKSOURCE_STATUS_PLLCLK) && (__HAL_RCC_GET_PLL_OSCSOURCE() == RCC_PLLSOURCE_HSE)))
 8002532:	4b8f      	ldr	r3, [pc, #572]	; (8002770 <HAL_RCC_OscConfig+0x264>)
 8002534:	685b      	ldr	r3, [r3, #4]
 8002536:	f003 030c 	and.w	r3, r3, #12
 800253a:	2b08      	cmp	r3, #8
 800253c:	d112      	bne.n	8002564 <HAL_RCC_OscConfig+0x58>
 800253e:	4b8c      	ldr	r3, [pc, #560]	; (8002770 <HAL_RCC_OscConfig+0x264>)
 8002540:	685b      	ldr	r3, [r3, #4]
 8002542:	f403 3380 	and.w	r3, r3, #65536	; 0x10000
 8002546:	f5b3 3f80 	cmp.w	r3, #65536	; 0x10000
 800254a:	d10b      	bne.n	8002564 <HAL_RCC_OscConfig+0x58>
    {
      if((__HAL_RCC_GET_FLAG(RCC_FLAG_HSERDY) != RESET) && (RCC_OscInitStruct->HSEState == RCC_HSE_OFF))
 800254c:	4b88      	ldr	r3, [pc, #544]	; (8002770 <HAL_RCC_OscConfig+0x264>)
 800254e:	681b      	ldr	r3, [r3, #0]
 8002550:	f403 3300 	and.w	r3, r3, #131072	; 0x20000
 8002554:	2b00      	cmp	r3, #0
 8002556:	d06c      	beq.n	8002632 <HAL_RCC_OscConfig+0x126>
 8002558:	687b      	ldr	r3, [r7, #4]
 800255a:	685b      	ldr	r3, [r3, #4]
 800255c:	2b00      	cmp	r3, #0
 800255e:	d168      	bne.n	8002632 <HAL_RCC_OscConfig+0x126>
      {
        return HAL_ERROR;
 8002560:	2301      	movs	r3, #1
 8002562:	e22d      	b.n	80029c0 <HAL_RCC_OscConfig+0x4b4>
      }
    }
    else
    {
      /* Set the new HSE configuration ---------------------------------------*/
      __HAL_RCC_HSE_CONFIG(RCC_OscInitStruct->HSEState);
 8002564:	687b      	ldr	r3, [r7, #4]
 8002566:	685b      	ldr	r3, [r3, #4]
 8002568:	f5b3 3f80 	cmp.w	r3, #65536	; 0x10000
 800256c:	d106      	bne.n	800257c <HAL_RCC_OscConfig+0x70>
 800256e:	4b80      	ldr	r3, [pc, #512]	; (8002770 <HAL_RCC_OscConfig+0x264>)
 8002570:	681b      	ldr	r3, [r3, #0]
 8002572:	4a7f      	ldr	r2, [pc, #508]	; (8002770 <HAL_RCC_OscConfig+0x264>)
 8002574:	f443 3380 	orr.w	r3, r3, #65536	; 0x10000
 8002578:	6013      	str	r3, [r2, #0]
 800257a:	e02e      	b.n	80025da <HAL_RCC_OscConfig+0xce>
 800257c:	687b      	ldr	r3, [r7, #4]
 800257e:	685b      	ldr	r3, [r3, #4]
 8002580:	2b00      	cmp	r3, #0
 8002582:	d10c      	bne.n	800259e <HAL_RCC_OscConfig+0x92>
 8002584:	4b7a      	ldr	r3, [pc, #488]	; (8002770 <HAL_RCC_OscConfig+0x264>)
 8002586:	681b      	ldr	r3, [r3, #0]
 8002588:	4a79      	ldr	r2, [pc, #484]	; (8002770 <HAL_RCC_OscConfig+0x264>)
 800258a:	f423 3380 	bic.w	r3, r3, #65536	; 0x10000
 800258e:	6013      	str	r3, [r2, #0]
 8002590:	4b77      	ldr	r3, [pc, #476]	; (8002770 <HAL_RCC_OscConfig+0x264>)
 8002592:	681b      	ldr	r3, [r3, #0]
 8002594:	4a76      	ldr	r2, [pc, #472]	; (8002770 <HAL_RCC_OscConfig+0x264>)
 8002596:	f423 2380 	bic.w	r3, r3, #262144	; 0x40000
 800259a:	6013      	str	r3, [r2, #0]
 800259c:	e01d      	b.n	80025da <HAL_RCC_OscConfig+0xce>
 800259e:	687b      	ldr	r3, [r7, #4]
 80025a0:	685b      	ldr	r3, [r3, #4]
 80025a2:	f5b3 2fa0 	cmp.w	r3, #327680	; 0x50000
 80025a6:	d10c      	bne.n	80025c2 <HAL_RCC_OscConfig+0xb6>
 80025a8:	4b71      	ldr	r3, [pc, #452]	; (8002770 <HAL_RCC_OscConfig+0x264>)
 80025aa:	681b      	ldr	r3, [r3, #0]
 80025ac:	4a70      	ldr	r2, [pc, #448]	; (8002770 <HAL_RCC_OscConfig+0x264>)
 80025ae:	f443 2380 	orr.w	r3, r3, #262144	; 0x40000
 80025b2:	6013      	str	r3, [r2, #0]
 80025b4:	4b6e      	ldr	r3, [pc, #440]	; (8002770 <HAL_RCC_OscConfig+0x264>)
 80025b6:	681b      	ldr	r3, [r3, #0]
 80025b8:	4a6d      	ldr	r2, [pc, #436]	; (8002770 <HAL_RCC_OscConfig+0x264>)
 80025ba:	f443 3380 	orr.w	r3, r3, #65536	; 0x10000
 80025be:	6013      	str	r3, [r2, #0]
 80025c0:	e00b      	b.n	80025da <HAL_RCC_OscConfig+0xce>
 80025c2:	4b6b      	ldr	r3, [pc, #428]	; (8002770 <HAL_RCC_OscConfig+0x264>)
 80025c4:	681b      	ldr	r3, [r3, #0]
 80025c6:	4a6a      	ldr	r2, [pc, #424]	; (8002770 <HAL_RCC_OscConfig+0x264>)
 80025c8:	f423 3380 	bic.w	r3, r3, #65536	; 0x10000
 80025cc:	6013      	str	r3, [r2, #0]
 80025ce:	4b68      	ldr	r3, [pc, #416]	; (8002770 <HAL_RCC_OscConfig+0x264>)
 80025d0:	681b      	ldr	r3, [r3, #0]
 80025d2:	4a67      	ldr	r2, [pc, #412]	; (8002770 <HAL_RCC_OscConfig+0x264>)
 80025d4:	f423 2380 	bic.w	r3, r3, #262144	; 0x40000
 80025d8:	6013      	str	r3, [r2, #0]
      

       /* Check the HSE State */
      if(RCC_OscInitStruct->HSEState != RCC_HSE_OFF)
 80025da:	687b      	ldr	r3, [r7, #4]
 80025dc:	685b      	ldr	r3, [r3, #4]
 80025de:	2b00      	cmp	r3, #0
 80025e0:	d013      	beq.n	800260a <HAL_RCC_OscConfig+0xfe>
      {
        /* Get Start Tick */
        tickstart = HAL_GetTick();
 80025e2:	f7ff fc71 	bl	8001ec8 <HAL_GetTick>
 80025e6:	6138      	str	r0, [r7, #16]
        
        /* Wait till HSE is ready */
        while(__HAL_RCC_GET_FLAG(RCC_FLAG_HSERDY) == RESET)
 80025e8:	e008      	b.n	80025fc <HAL_RCC_OscConfig+0xf0>
        {
          if((HAL_GetTick() - tickstart ) > HSE_TIMEOUT_VALUE)
 80025ea:	f7ff fc6d 	bl	8001ec8 <HAL_GetTick>
 80025ee:	4602      	mov	r2, r0
 80025f0:	693b      	ldr	r3, [r7, #16]
 80025f2:	1ad3      	subs	r3, r2, r3
 80025f4:	2b64      	cmp	r3, #100	; 0x64
 80025f6:	d901      	bls.n	80025fc <HAL_RCC_OscConfig+0xf0>
          {
            return HAL_TIMEOUT;
 80025f8:	2303      	movs	r3, #3
 80025fa:	e1e1      	b.n	80029c0 <HAL_RCC_OscConfig+0x4b4>
        while(__HAL_RCC_GET_FLAG(RCC_FLAG_HSERDY) == RESET)
 80025fc:	4b5c      	ldr	r3, [pc, #368]	; (8002770 <HAL_RCC_OscConfig+0x264>)
 80025fe:	681b      	ldr	r3, [r3, #0]
 8002600:	f403 3300 	and.w	r3, r3, #131072	; 0x20000
 8002604:	2b00      	cmp	r3, #0
 8002606:	d0f0      	beq.n	80025ea <HAL_RCC_OscConfig+0xde>
 8002608:	e014      	b.n	8002634 <HAL_RCC_OscConfig+0x128>
        }
      }
      else
      {
        /* Get Start Tick */
        tickstart = HAL_GetTick();
 800260a:	f7ff fc5d 	bl	8001ec8 <HAL_GetTick>
 800260e:	6138      	str	r0, [r7, #16]
        
        /* Wait till HSE is disabled */
        while(__HAL_RCC_GET_FLAG(RCC_FLAG_HSERDY) != RESET)
 8002610:	e008      	b.n	8002624 <HAL_RCC_OscConfig+0x118>
        {
           if((HAL_GetTick() - tickstart ) > HSE_TIMEOUT_VALUE)
 8002612:	f7ff fc59 	bl	8001ec8 <HAL_GetTick>
 8002616:	4602      	mov	r2, r0
 8002618:	693b      	ldr	r3, [r7, #16]
 800261a:	1ad3      	subs	r3, r2, r3
 800261c:	2b64      	cmp	r3, #100	; 0x64
 800261e:	d901      	bls.n	8002624 <HAL_RCC_OscConfig+0x118>
          {
            return HAL_TIMEOUT;
 8002620:	2303      	movs	r3, #3
 8002622:	e1cd      	b.n	80029c0 <HAL_RCC_OscConfig+0x4b4>
        while(__HAL_RCC_GET_FLAG(RCC_FLAG_HSERDY) != RESET)
 8002624:	4b52      	ldr	r3, [pc, #328]	; (8002770 <HAL_RCC_OscConfig+0x264>)
 8002626:	681b      	ldr	r3, [r3, #0]
 8002628:	f403 3300 	and.w	r3, r3, #131072	; 0x20000
 800262c:	2b00      	cmp	r3, #0
 800262e:	d1f0      	bne.n	8002612 <HAL_RCC_OscConfig+0x106>
 8002630:	e000      	b.n	8002634 <HAL_RCC_OscConfig+0x128>
      if((__HAL_RCC_GET_FLAG(RCC_FLAG_HSERDY) != RESET) && (RCC_OscInitStruct->HSEState == RCC_HSE_OFF))
 8002632:	bf00      	nop
        }
      }
    }
  }
  /*----------------------------- HSI Configuration --------------------------*/ 
  if(((RCC_OscInitStruct->OscillatorType) & RCC_OSCILLATORTYPE_HSI) == RCC_OSCILLATORTYPE_HSI)
 8002634:	687b      	ldr	r3, [r7, #4]
 8002636:	681b      	ldr	r3, [r3, #0]
 8002638:	f003 0302 	and.w	r3, r3, #2
 800263c:	2b00      	cmp	r3, #0
 800263e:	d063      	beq.n	8002708 <HAL_RCC_OscConfig+0x1fc>
    /* Check the parameters */
    assert_param(IS_RCC_HSI(RCC_OscInitStruct->HSIState));
    assert_param(IS_RCC_CALIBRATION_VALUE(RCC_OscInitStruct->HSICalibrationValue));

    /* Check if HSI is used as system clock or as PLL source when PLL is selected as system clock */ 
    if((__HAL_RCC_GET_SYSCLK_SOURCE() == RCC_SYSCLKSOURCE_STATUS_HSI) 
 8002640:	4b4b      	ldr	r3, [pc, #300]	; (8002770 <HAL_RCC_OscConfig+0x264>)
 8002642:	685b      	ldr	r3, [r3, #4]
 8002644:	f003 030c 	and.w	r3, r3, #12
 8002648:	2b00      	cmp	r3, #0
 800264a:	d00b      	beq.n	8002664 <HAL_RCC_OscConfig+0x158>
       || ((__HAL_RCC_GET_SYSCLK_SOURCE() == RCC_SYSCLKSOURCE_STATUS_PLLCLK) && (__HAL_RCC_GET_PLL_OSCSOURCE() == RCC_PLLSOURCE_HSI_DIV2)))
 800264c:	4b48      	ldr	r3, [pc, #288]	; (8002770 <HAL_RCC_OscConfig+0x264>)
 800264e:	685b      	ldr	r3, [r3, #4]
 8002650:	f003 030c 	and.w	r3, r3, #12
 8002654:	2b08      	cmp	r3, #8
 8002656:	d11c      	bne.n	8002692 <HAL_RCC_OscConfig+0x186>
 8002658:	4b45      	ldr	r3, [pc, #276]	; (8002770 <HAL_RCC_OscConfig+0x264>)
 800265a:	685b      	ldr	r3, [r3, #4]
 800265c:	f403 3380 	and.w	r3, r3, #65536	; 0x10000
 8002660:	2b00      	cmp	r3, #0
 8002662:	d116      	bne.n	8002692 <HAL_RCC_OscConfig+0x186>
    {
      /* When HSI is used as system clock it will not disabled */
      if((__HAL_RCC_GET_FLAG(RCC_FLAG_HSIRDY) != RESET) && (RCC_OscInitStruct->HSIState != RCC_HSI_ON))
 8002664:	4b42      	ldr	r3, [pc, #264]	; (8002770 <HAL_RCC_OscConfig+0x264>)
 8002666:	681b      	ldr	r3, [r3, #0]
 8002668:	f003 0302 	and.w	r3, r3, #2
 800266c:	2b00      	cmp	r3, #0
 800266e:	d005      	beq.n	800267c <HAL_RCC_OscConfig+0x170>
 8002670:	687b      	ldr	r3, [r7, #4]
 8002672:	691b      	ldr	r3, [r3, #16]
 8002674:	2b01      	cmp	r3, #1
 8002676:	d001      	beq.n	800267c <HAL_RCC_OscConfig+0x170>
      {
        return HAL_ERROR;
 8002678:	2301      	movs	r3, #1
 800267a:	e1a1      	b.n	80029c0 <HAL_RCC_OscConfig+0x4b4>
      }
      /* Otherwise, just the calibration is allowed */
      else
      {
        /* Adjusts the Internal High Speed oscillator (HSI) calibration value.*/
        __HAL_RCC_HSI_CALIBRATIONVALUE_ADJUST(RCC_OscInitStruct->HSICalibrationValue);
 800267c:	4b3c      	ldr	r3, [pc, #240]	; (8002770 <HAL_RCC_OscConfig+0x264>)
 800267e:	681b      	ldr	r3, [r3, #0]
 8002680:	f023 02f8 	bic.w	r2, r3, #248	; 0xf8
 8002684:	687b      	ldr	r3, [r7, #4]
 8002686:	695b      	ldr	r3, [r3, #20]
 8002688:	00db      	lsls	r3, r3, #3
 800268a:	4939      	ldr	r1, [pc, #228]	; (8002770 <HAL_RCC_OscConfig+0x264>)
 800268c:	4313      	orrs	r3, r2
 800268e:	600b      	str	r3, [r1, #0]
      if((__HAL_RCC_GET_FLAG(RCC_FLAG_HSIRDY) != RESET) && (RCC_OscInitStruct->HSIState != RCC_HSI_ON))
 8002690:	e03a      	b.n	8002708 <HAL_RCC_OscConfig+0x1fc>
      }
    }
    else
    {
      /* Check the HSI State */
      if(RCC_OscInitStruct->HSIState != RCC_HSI_OFF)
 8002692:	687b      	ldr	r3, [r7, #4]
 8002694:	691b      	ldr	r3, [r3, #16]
 8002696:	2b00      	cmp	r3, #0
 8002698:	d020      	beq.n	80026dc <HAL_RCC_OscConfig+0x1d0>
      {
       /* Enable the Internal High Speed oscillator (HSI). */
        __HAL_RCC_HSI_ENABLE();
 800269a:	4b36      	ldr	r3, [pc, #216]	; (8002774 <HAL_RCC_OscConfig+0x268>)
 800269c:	2201      	movs	r2, #1
 800269e:	601a      	str	r2, [r3, #0]

        /* Get Start Tick */
        tickstart = HAL_GetTick();
 80026a0:	f7ff fc12 	bl	8001ec8 <HAL_GetTick>
 80026a4:	6138      	str	r0, [r7, #16]

        /* Wait till HSI is ready */
        while(__HAL_RCC_GET_FLAG(RCC_FLAG_HSIRDY) == RESET)
 80026a6:	e008      	b.n	80026ba <HAL_RCC_OscConfig+0x1ae>
        {
          if((HAL_GetTick() - tickstart ) > HSI_TIMEOUT_VALUE)
 80026a8:	f7ff fc0e 	bl	8001ec8 <HAL_GetTick>
 80026ac:	4602      	mov	r2, r0
 80026ae:	693b      	ldr	r3, [r7, #16]
 80026b0:	1ad3      	subs	r3, r2, r3
 80026b2:	2b02      	cmp	r3, #2
 80026b4:	d901      	bls.n	80026ba <HAL_RCC_OscConfig+0x1ae>
          {
            return HAL_TIMEOUT;
 80026b6:	2303      	movs	r3, #3
 80026b8:	e182      	b.n	80029c0 <HAL_RCC_OscConfig+0x4b4>
        while(__HAL_RCC_GET_FLAG(RCC_FLAG_HSIRDY) == RESET)
 80026ba:	4b2d      	ldr	r3, [pc, #180]	; (8002770 <HAL_RCC_OscConfig+0x264>)
 80026bc:	681b      	ldr	r3, [r3, #0]
 80026be:	f003 0302 	and.w	r3, r3, #2
 80026c2:	2b00      	cmp	r3, #0
 80026c4:	d0f0      	beq.n	80026a8 <HAL_RCC_OscConfig+0x19c>
          }
        }

        /* Adjusts the Internal High Speed oscillator (HSI) calibration value.*/
        __HAL_RCC_HSI_CALIBRATIONVALUE_ADJUST(RCC_OscInitStruct->HSICalibrationValue);
 80026c6:	4b2a      	ldr	r3, [pc, #168]	; (8002770 <HAL_RCC_OscConfig+0x264>)
 80026c8:	681b      	ldr	r3, [r3, #0]
 80026ca:	f023 02f8 	bic.w	r2, r3, #248	; 0xf8
 80026ce:	687b      	ldr	r3, [r7, #4]
 80026d0:	695b      	ldr	r3, [r3, #20]
 80026d2:	00db      	lsls	r3, r3, #3
 80026d4:	4926      	ldr	r1, [pc, #152]	; (8002770 <HAL_RCC_OscConfig+0x264>)
 80026d6:	4313      	orrs	r3, r2
 80026d8:	600b      	str	r3, [r1, #0]
 80026da:	e015      	b.n	8002708 <HAL_RCC_OscConfig+0x1fc>
      }
      else
      {
        /* Disable the Internal High Speed oscillator (HSI). */
        __HAL_RCC_HSI_DISABLE();
 80026dc:	4b25      	ldr	r3, [pc, #148]	; (8002774 <HAL_RCC_OscConfig+0x268>)
 80026de:	2200      	movs	r2, #0
 80026e0:	601a      	str	r2, [r3, #0]

        /* Get Start Tick */
        tickstart = HAL_GetTick();
 80026e2:	f7ff fbf1 	bl	8001ec8 <HAL_GetTick>
 80026e6:	6138      	str	r0, [r7, #16]

        /* Wait till HSI is disabled */
        while(__HAL_RCC_GET_FLAG(RCC_FLAG_HSIRDY) != RESET)
 80026e8:	e008      	b.n	80026fc <HAL_RCC_OscConfig+0x1f0>
        {
          if((HAL_GetTick() - tickstart ) > HSI_TIMEOUT_VALUE)
 80026ea:	f7ff fbed 	bl	8001ec8 <HAL_GetTick>
 80026ee:	4602      	mov	r2, r0
 80026f0:	693b      	ldr	r3, [r7, #16]
 80026f2:	1ad3      	subs	r3, r2, r3
 80026f4:	2b02      	cmp	r3, #2
 80026f6:	d901      	bls.n	80026fc <HAL_RCC_OscConfig+0x1f0>
          {
            return HAL_TIMEOUT;
 80026f8:	2303      	movs	r3, #3
 80026fa:	e161      	b.n	80029c0 <HAL_RCC_OscConfig+0x4b4>
        while(__HAL_RCC_GET_FLAG(RCC_FLAG_HSIRDY) != RESET)
 80026fc:	4b1c      	ldr	r3, [pc, #112]	; (8002770 <HAL_RCC_OscConfig+0x264>)
 80026fe:	681b      	ldr	r3, [r3, #0]
 8002700:	f003 0302 	and.w	r3, r3, #2
 8002704:	2b00      	cmp	r3, #0
 8002706:	d1f0      	bne.n	80026ea <HAL_RCC_OscConfig+0x1de>
        }
      }
    }
  }
  /*------------------------------ LSI Configuration -------------------------*/ 
  if(((RCC_OscInitStruct->OscillatorType) & RCC_OSCILLATORTYPE_LSI) == RCC_OSCILLATORTYPE_LSI)
 8002708:	687b      	ldr	r3, [r7, #4]
 800270a:	681b      	ldr	r3, [r3, #0]
 800270c:	f003 0308 	and.w	r3, r3, #8
 8002710:	2b00      	cmp	r3, #0
 8002712:	d039      	beq.n	8002788 <HAL_RCC_OscConfig+0x27c>
  {
    /* Check the parameters */
    assert_param(IS_RCC_LSI(RCC_OscInitStruct->LSIState));

    /* Check the LSI State */
    if(RCC_OscInitStruct->LSIState != RCC_LSI_OFF)
 8002714:	687b      	ldr	r3, [r7, #4]
 8002716:	699b      	ldr	r3, [r3, #24]
 8002718:	2b00      	cmp	r3, #0
 800271a:	d019      	beq.n	8002750 <HAL_RCC_OscConfig+0x244>
    {
      /* Enable the Internal Low Speed oscillator (LSI). */
      __HAL_RCC_LSI_ENABLE();
 800271c:	4b16      	ldr	r3, [pc, #88]	; (8002778 <HAL_RCC_OscConfig+0x26c>)
 800271e:	2201      	movs	r2, #1
 8002720:	601a      	str	r2, [r3, #0]

      /* Get Start Tick */
      tickstart = HAL_GetTick();
 8002722:	f7ff fbd1 	bl	8001ec8 <HAL_GetTick>
 8002726:	6138      	str	r0, [r7, #16]

      /* Wait till LSI is ready */  
      while(__HAL_RCC_GET_FLAG(RCC_FLAG_LSIRDY) == RESET)
 8002728:	e008      	b.n	800273c <HAL_RCC_OscConfig+0x230>
      {
        if((HAL_GetTick() - tickstart ) > LSI_TIMEOUT_VALUE)
 800272a:	f7ff fbcd 	bl	8001ec8 <HAL_GetTick>
 800272e:	4602      	mov	r2, r0
 8002730:	693b      	ldr	r3, [r7, #16]
 8002732:	1ad3      	subs	r3, r2, r3
 8002734:	2b02      	cmp	r3, #2
 8002736:	d901      	bls.n	800273c <HAL_RCC_OscConfig+0x230>
        {
          return HAL_TIMEOUT;
 8002738:	2303      	movs	r3, #3
 800273a:	e141      	b.n	80029c0 <HAL_RCC_OscConfig+0x4b4>
      while(__HAL_RCC_GET_FLAG(RCC_FLAG_LSIRDY) == RESET)
 800273c:	4b0c      	ldr	r3, [pc, #48]	; (8002770 <HAL_RCC_OscConfig+0x264>)
 800273e:	6a5b      	ldr	r3, [r3, #36]	; 0x24
 8002740:	f003 0302 	and.w	r3, r3, #2
 8002744:	2b00      	cmp	r3, #0
 8002746:	d0f0      	beq.n	800272a <HAL_RCC_OscConfig+0x21e>
        }
      }
      /*  To have a fully stabilized clock in the specified range, a software delay of 1ms 
          should be added.*/
      RCC_Delay(1);
 8002748:	2001      	movs	r0, #1
 800274a:	f000 fadf 	bl	8002d0c <RCC_Delay>
 800274e:	e01b      	b.n	8002788 <HAL_RCC_OscConfig+0x27c>
    }
    else
    {
      /* Disable the Internal Low Speed oscillator (LSI). */
      __HAL_RCC_LSI_DISABLE();
 8002750:	4b09      	ldr	r3, [pc, #36]	; (8002778 <HAL_RCC_OscConfig+0x26c>)
 8002752:	2200      	movs	r2, #0
 8002754:	601a      	str	r2, [r3, #0]

      /* Get Start Tick */
      tickstart = HAL_GetTick();
 8002756:	f7ff fbb7 	bl	8001ec8 <HAL_GetTick>
 800275a:	6138      	str	r0, [r7, #16]

      /* Wait till LSI is disabled */  
      while(__HAL_RCC_GET_FLAG(RCC_FLAG_LSIRDY) != RESET)
 800275c:	e00e      	b.n	800277c <HAL_RCC_OscConfig+0x270>
      {
        if((HAL_GetTick() - tickstart ) > LSI_TIMEOUT_VALUE)
 800275e:	f7ff fbb3 	bl	8001ec8 <HAL_GetTick>
 8002762:	4602      	mov	r2, r0
 8002764:	693b      	ldr	r3, [r7, #16]
 8002766:	1ad3      	subs	r3, r2, r3
 8002768:	2b02      	cmp	r3, #2
 800276a:	d907      	bls.n	800277c <HAL_RCC_OscConfig+0x270>
        {
          return HAL_TIMEOUT;
 800276c:	2303      	movs	r3, #3
 800276e:	e127      	b.n	80029c0 <HAL_RCC_OscConfig+0x4b4>
 8002770:	40021000 	.word	0x40021000
 8002774:	42420000 	.word	0x42420000
 8002778:	42420480 	.word	0x42420480
      while(__HAL_RCC_GET_FLAG(RCC_FLAG_LSIRDY) != RESET)
 800277c:	4b92      	ldr	r3, [pc, #584]	; (80029c8 <HAL_RCC_OscConfig+0x4bc>)
 800277e:	6a5b      	ldr	r3, [r3, #36]	; 0x24
 8002780:	f003 0302 	and.w	r3, r3, #2
 8002784:	2b00      	cmp	r3, #0
 8002786:	d1ea      	bne.n	800275e <HAL_RCC_OscConfig+0x252>
        }
      }
    }
  }
  /*------------------------------ LSE Configuration -------------------------*/ 
  if(((RCC_OscInitStruct->OscillatorType) & RCC_OSCILLATORTYPE_LSE) == RCC_OSCILLATORTYPE_LSE)
 8002788:	687b      	ldr	r3, [r7, #4]
 800278a:	681b      	ldr	r3, [r3, #0]
 800278c:	f003 0304 	and.w	r3, r3, #4
 8002790:	2b00      	cmp	r3, #0
 8002792:	f000 80a6 	beq.w	80028e2 <HAL_RCC_OscConfig+0x3d6>
  {
    FlagStatus       pwrclkchanged = RESET;
 8002796:	2300      	movs	r3, #0
 8002798:	75fb      	strb	r3, [r7, #23]
    /* Check the parameters */
    assert_param(IS_RCC_LSE(RCC_OscInitStruct->LSEState));

    /* Update LSE configuration in Backup Domain control register    */
    /* Requires to enable write access to Backup Domain of necessary */
    if(__HAL_RCC_PWR_IS_CLK_DISABLED())
 800279a:	4b8b      	ldr	r3, [pc, #556]	; (80029c8 <HAL_RCC_OscConfig+0x4bc>)
 800279c:	69db      	ldr	r3, [r3, #28]
 800279e:	f003 5380 	and.w	r3, r3, #268435456	; 0x10000000
 80027a2:	2b00      	cmp	r3, #0
 80027a4:	d10d      	bne.n	80027c2 <HAL_RCC_OscConfig+0x2b6>
    {
      __HAL_RCC_PWR_CLK_ENABLE();
 80027a6:	4b88      	ldr	r3, [pc, #544]	; (80029c8 <HAL_RCC_OscConfig+0x4bc>)
 80027a8:	69db      	ldr	r3, [r3, #28]
 80027aa:	4a87      	ldr	r2, [pc, #540]	; (80029c8 <HAL_RCC_OscConfig+0x4bc>)
 80027ac:	f043 5380 	orr.w	r3, r3, #268435456	; 0x10000000
 80027b0:	61d3      	str	r3, [r2, #28]
 80027b2:	4b85      	ldr	r3, [pc, #532]	; (80029c8 <HAL_RCC_OscConfig+0x4bc>)
 80027b4:	69db      	ldr	r3, [r3, #28]
 80027b6:	f003 5380 	and.w	r3, r3, #268435456	; 0x10000000
 80027ba:	60fb      	str	r3, [r7, #12]
 80027bc:	68fb      	ldr	r3, [r7, #12]
      pwrclkchanged = SET;
 80027be:	2301      	movs	r3, #1
 80027c0:	75fb      	strb	r3, [r7, #23]
    }

    if(HAL_IS_BIT_CLR(PWR->CR, PWR_CR_DBP))
 80027c2:	4b82      	ldr	r3, [pc, #520]	; (80029cc <HAL_RCC_OscConfig+0x4c0>)
 80027c4:	681b      	ldr	r3, [r3, #0]
 80027c6:	f403 7380 	and.w	r3, r3, #256	; 0x100
 80027ca:	2b00      	cmp	r3, #0
 80027cc:	d118      	bne.n	8002800 <HAL_RCC_OscConfig+0x2f4>
    {
      /* Enable write access to Backup domain */
      SET_BIT(PWR->CR, PWR_CR_DBP);
 80027ce:	4b7f      	ldr	r3, [pc, #508]	; (80029cc <HAL_RCC_OscConfig+0x4c0>)
 80027d0:	681b      	ldr	r3, [r3, #0]
 80027d2:	4a7e      	ldr	r2, [pc, #504]	; (80029cc <HAL_RCC_OscConfig+0x4c0>)
 80027d4:	f443 7380 	orr.w	r3, r3, #256	; 0x100
 80027d8:	6013      	str	r3, [r2, #0]

      /* Wait for Backup domain Write protection disable */
      tickstart = HAL_GetTick();
 80027da:	f7ff fb75 	bl	8001ec8 <HAL_GetTick>
 80027de:	6138      	str	r0, [r7, #16]

      while(HAL_IS_BIT_CLR(PWR->CR, PWR_CR_DBP))
 80027e0:	e008      	b.n	80027f4 <HAL_RCC_OscConfig+0x2e8>
      {
        if((HAL_GetTick() - tickstart) > RCC_DBP_TIMEOUT_VALUE)
 80027e2:	f7ff fb71 	bl	8001ec8 <HAL_GetTick>
 80027e6:	4602      	mov	r2, r0
 80027e8:	693b      	ldr	r3, [r7, #16]
 80027ea:	1ad3      	subs	r3, r2, r3
 80027ec:	2b64      	cmp	r3, #100	; 0x64
 80027ee:	d901      	bls.n	80027f4 <HAL_RCC_OscConfig+0x2e8>
        {
          return HAL_TIMEOUT;
 80027f0:	2303      	movs	r3, #3
 80027f2:	e0e5      	b.n	80029c0 <HAL_RCC_OscConfig+0x4b4>
      while(HAL_IS_BIT_CLR(PWR->CR, PWR_CR_DBP))
 80027f4:	4b75      	ldr	r3, [pc, #468]	; (80029cc <HAL_RCC_OscConfig+0x4c0>)
 80027f6:	681b      	ldr	r3, [r3, #0]
 80027f8:	f403 7380 	and.w	r3, r3, #256	; 0x100
 80027fc:	2b00      	cmp	r3, #0
 80027fe:	d0f0      	beq.n	80027e2 <HAL_RCC_OscConfig+0x2d6>
        }
      }
    }

    /* Set the new LSE configuration -----------------------------------------*/
    __HAL_RCC_LSE_CONFIG(RCC_OscInitStruct->LSEState);
 8002800:	687b      	ldr	r3, [r7, #4]
 8002802:	68db      	ldr	r3, [r3, #12]
 8002804:	2b01      	cmp	r3, #1
 8002806:	d106      	bne.n	8002816 <HAL_RCC_OscConfig+0x30a>
 8002808:	4b6f      	ldr	r3, [pc, #444]	; (80029c8 <HAL_RCC_OscConfig+0x4bc>)
 800280a:	6a1b      	ldr	r3, [r3, #32]
 800280c:	4a6e      	ldr	r2, [pc, #440]	; (80029c8 <HAL_RCC_OscConfig+0x4bc>)
 800280e:	f043 0301 	orr.w	r3, r3, #1
 8002812:	6213      	str	r3, [r2, #32]
 8002814:	e02d      	b.n	8002872 <HAL_RCC_OscConfig+0x366>
 8002816:	687b      	ldr	r3, [r7, #4]
 8002818:	68db      	ldr	r3, [r3, #12]
 800281a:	2b00      	cmp	r3, #0
 800281c:	d10c      	bne.n	8002838 <HAL_RCC_OscConfig+0x32c>
 800281e:	4b6a      	ldr	r3, [pc, #424]	; (80029c8 <HAL_RCC_OscConfig+0x4bc>)
 8002820:	6a1b      	ldr	r3, [r3, #32]
 8002822:	4a69      	ldr	r2, [pc, #420]	; (80029c8 <HAL_RCC_OscConfig+0x4bc>)
 8002824:	f023 0301 	bic.w	r3, r3, #1
 8002828:	6213      	str	r3, [r2, #32]
 800282a:	4b67      	ldr	r3, [pc, #412]	; (80029c8 <HAL_RCC_OscConfig+0x4bc>)
 800282c:	6a1b      	ldr	r3, [r3, #32]
 800282e:	4a66      	ldr	r2, [pc, #408]	; (80029c8 <HAL_RCC_OscConfig+0x4bc>)
 8002830:	f023 0304 	bic.w	r3, r3, #4
 8002834:	6213      	str	r3, [r2, #32]
 8002836:	e01c      	b.n	8002872 <HAL_RCC_OscConfig+0x366>
 8002838:	687b      	ldr	r3, [r7, #4]
 800283a:	68db      	ldr	r3, [r3, #12]
 800283c:	2b05      	cmp	r3, #5
 800283e:	d10c      	bne.n	800285a <HAL_RCC_OscConfig+0x34e>
 8002840:	4b61      	ldr	r3, [pc, #388]	; (80029c8 <HAL_RCC_OscConfig+0x4bc>)
 8002842:	6a1b      	ldr	r3, [r3, #32]
 8002844:	4a60      	ldr	r2, [pc, #384]	; (80029c8 <HAL_RCC_OscConfig+0x4bc>)
 8002846:	f043 0304 	orr.w	r3, r3, #4
 800284a:	6213      	str	r3, [r2, #32]
 800284c:	4b5e      	ldr	r3, [pc, #376]	; (80029c8 <HAL_RCC_OscConfig+0x4bc>)
 800284e:	6a1b      	ldr	r3, [r3, #32]
 8002850:	4a5d      	ldr	r2, [pc, #372]	; (80029c8 <HAL_RCC_OscConfig+0x4bc>)
 8002852:	f043 0301 	orr.w	r3, r3, #1
 8002856:	6213      	str	r3, [r2, #32]
 8002858:	e00b      	b.n	8002872 <HAL_RCC_OscConfig+0x366>
 800285a:	4b5b      	ldr	r3, [pc, #364]	; (80029c8 <HAL_RCC_OscConfig+0x4bc>)
 800285c:	6a1b      	ldr	r3, [r3, #32]
 800285e:	4a5a      	ldr	r2, [pc, #360]	; (80029c8 <HAL_RCC_OscConfig+0x4bc>)
 8002860:	f023 0301 	bic.w	r3, r3, #1
 8002864:	6213      	str	r3, [r2, #32]
 8002866:	4b58      	ldr	r3, [pc, #352]	; (80029c8 <HAL_RCC_OscConfig+0x4bc>)
 8002868:	6a1b      	ldr	r3, [r3, #32]
 800286a:	4a57      	ldr	r2, [pc, #348]	; (80029c8 <HAL_RCC_OscConfig+0x4bc>)
 800286c:	f023 0304 	bic.w	r3, r3, #4
 8002870:	6213      	str	r3, [r2, #32]
    /* Check the LSE State */
    if(RCC_OscInitStruct->LSEState != RCC_LSE_OFF)
 8002872:	687b      	ldr	r3, [r7, #4]
 8002874:	68db      	ldr	r3, [r3, #12]
 8002876:	2b00      	cmp	r3, #0
 8002878:	d015      	beq.n	80028a6 <HAL_RCC_OscConfig+0x39a>
    {
      /* Get Start Tick */
      tickstart = HAL_GetTick();
 800287a:	f7ff fb25 	bl	8001ec8 <HAL_GetTick>
 800287e:	6138      	str	r0, [r7, #16]

      /* Wait till LSE is ready */  
      while(__HAL_RCC_GET_FLAG(RCC_FLAG_LSERDY) == RESET)
 8002880:	e00a      	b.n	8002898 <HAL_RCC_OscConfig+0x38c>
      {
        if((HAL_GetTick() - tickstart ) > RCC_LSE_TIMEOUT_VALUE)
 8002882:	f7ff fb21 	bl	8001ec8 <HAL_GetTick>
 8002886:	4602      	mov	r2, r0
 8002888:	693b      	ldr	r3, [r7, #16]
 800288a:	1ad3      	subs	r3, r2, r3
 800288c:	f241 3288 	movw	r2, #5000	; 0x1388
 8002890:	4293      	cmp	r3, r2
 8002892:	d901      	bls.n	8002898 <HAL_RCC_OscConfig+0x38c>
        {
          return HAL_TIMEOUT;
 8002894:	2303      	movs	r3, #3
 8002896:	e093      	b.n	80029c0 <HAL_RCC_OscConfig+0x4b4>
      while(__HAL_RCC_GET_FLAG(RCC_FLAG_LSERDY) == RESET)
 8002898:	4b4b      	ldr	r3, [pc, #300]	; (80029c8 <HAL_RCC_OscConfig+0x4bc>)
 800289a:	6a1b      	ldr	r3, [r3, #32]
 800289c:	f003 0302 	and.w	r3, r3, #2
 80028a0:	2b00      	cmp	r3, #0
 80028a2:	d0ee      	beq.n	8002882 <HAL_RCC_OscConfig+0x376>
 80028a4:	e014      	b.n	80028d0 <HAL_RCC_OscConfig+0x3c4>
      }
    }
    else
    {
      /* Get Start Tick */
      tickstart = HAL_GetTick();
 80028a6:	f7ff fb0f 	bl	8001ec8 <HAL_GetTick>
 80028aa:	6138      	str	r0, [r7, #16]

      /* Wait till LSE is disabled */  
      while(__HAL_RCC_GET_FLAG(RCC_FLAG_LSERDY) != RESET)
 80028ac:	e00a      	b.n	80028c4 <HAL_RCC_OscConfig+0x3b8>
      {
        if((HAL_GetTick() - tickstart ) > RCC_LSE_TIMEOUT_VALUE)
 80028ae:	f7ff fb0b 	bl	8001ec8 <HAL_GetTick>
 80028b2:	4602      	mov	r2, r0
 80028b4:	693b      	ldr	r3, [r7, #16]
 80028b6:	1ad3      	subs	r3, r2, r3
 80028b8:	f241 3288 	movw	r2, #5000	; 0x1388
 80028bc:	4293      	cmp	r3, r2
 80028be:	d901      	bls.n	80028c4 <HAL_RCC_OscConfig+0x3b8>
        {
          return HAL_TIMEOUT;
 80028c0:	2303      	movs	r3, #3
 80028c2:	e07d      	b.n	80029c0 <HAL_RCC_OscConfig+0x4b4>
      while(__HAL_RCC_GET_FLAG(RCC_FLAG_LSERDY) != RESET)
 80028c4:	4b40      	ldr	r3, [pc, #256]	; (80029c8 <HAL_RCC_OscConfig+0x4bc>)
 80028c6:	6a1b      	ldr	r3, [r3, #32]
 80028c8:	f003 0302 	and.w	r3, r3, #2
 80028cc:	2b00      	cmp	r3, #0
 80028ce:	d1ee      	bne.n	80028ae <HAL_RCC_OscConfig+0x3a2>
        }
      }
    }

    /* Require to disable power clock if necessary */
    if(pwrclkchanged == SET)
 80028d0:	7dfb      	ldrb	r3, [r7, #23]
 80028d2:	2b01      	cmp	r3, #1
 80028d4:	d105      	bne.n	80028e2 <HAL_RCC_OscConfig+0x3d6>
    {
      __HAL_RCC_PWR_CLK_DISABLE();
 80028d6:	4b3c      	ldr	r3, [pc, #240]	; (80029c8 <HAL_RCC_OscConfig+0x4bc>)
 80028d8:	69db      	ldr	r3, [r3, #28]
 80028da:	4a3b      	ldr	r2, [pc, #236]	; (80029c8 <HAL_RCC_OscConfig+0x4bc>)
 80028dc:	f023 5380 	bic.w	r3, r3, #268435456	; 0x10000000
 80028e0:	61d3      	str	r3, [r2, #28]

#endif /* RCC_CR_PLL2ON */
  /*-------------------------------- PLL Configuration -----------------------*/
  /* Check the parameters */
  assert_param(IS_RCC_PLL(RCC_OscInitStruct->PLL.PLLState));
  if ((RCC_OscInitStruct->PLL.PLLState) != RCC_PLL_NONE)
 80028e2:	687b      	ldr	r3, [r7, #4]
 80028e4:	69db      	ldr	r3, [r3, #28]
 80028e6:	2b00      	cmp	r3, #0
 80028e8:	d069      	beq.n	80029be <HAL_RCC_OscConfig+0x4b2>
  {
    /* Check if the PLL is used as system clock or not */
    if(__HAL_RCC_GET_SYSCLK_SOURCE() != RCC_SYSCLKSOURCE_STATUS_PLLCLK)
 80028ea:	4b37      	ldr	r3, [pc, #220]	; (80029c8 <HAL_RCC_OscConfig+0x4bc>)
 80028ec:	685b      	ldr	r3, [r3, #4]
 80028ee:	f003 030c 	and.w	r3, r3, #12
 80028f2:	2b08      	cmp	r3, #8
 80028f4:	d061      	beq.n	80029ba <HAL_RCC_OscConfig+0x4ae>
    { 
      if((RCC_OscInitStruct->PLL.PLLState) == RCC_PLL_ON)
 80028f6:	687b      	ldr	r3, [r7, #4]
 80028f8:	69db      	ldr	r3, [r3, #28]
 80028fa:	2b02      	cmp	r3, #2
 80028fc:	d146      	bne.n	800298c <HAL_RCC_OscConfig+0x480>
        /* Check the parameters */
        assert_param(IS_RCC_PLLSOURCE(RCC_OscInitStruct->PLL.PLLSource));
        assert_param(IS_RCC_PLL_MUL(RCC_OscInitStruct->PLL.PLLMUL));

        /* Disable the main PLL. */
        __HAL_RCC_PLL_DISABLE();
 80028fe:	4b34      	ldr	r3, [pc, #208]	; (80029d0 <HAL_RCC_OscConfig+0x4c4>)
 8002900:	2200      	movs	r2, #0
 8002902:	601a      	str	r2, [r3, #0]

        /* Get Start Tick */
        tickstart = HAL_GetTick();
 8002904:	f7ff fae0 	bl	8001ec8 <HAL_GetTick>
 8002908:	6138      	str	r0, [r7, #16]

        /* Wait till PLL is disabled */
        while(__HAL_RCC_GET_FLAG(RCC_FLAG_PLLRDY)  != RESET)
 800290a:	e008      	b.n	800291e <HAL_RCC_OscConfig+0x412>
        {
          if((HAL_GetTick() - tickstart ) > PLL_TIMEOUT_VALUE)
 800290c:	f7ff fadc 	bl	8001ec8 <HAL_GetTick>
 8002910:	4602      	mov	r2, r0
 8002912:	693b      	ldr	r3, [r7, #16]
 8002914:	1ad3      	subs	r3, r2, r3
 8002916:	2b02      	cmp	r3, #2
 8002918:	d901      	bls.n	800291e <HAL_RCC_OscConfig+0x412>
          {
            return HAL_TIMEOUT;
 800291a:	2303      	movs	r3, #3
 800291c:	e050      	b.n	80029c0 <HAL_RCC_OscConfig+0x4b4>
        while(__HAL_RCC_GET_FLAG(RCC_FLAG_PLLRDY)  != RESET)
 800291e:	4b2a      	ldr	r3, [pc, #168]	; (80029c8 <HAL_RCC_OscConfig+0x4bc>)
 8002920:	681b      	ldr	r3, [r3, #0]
 8002922:	f003 7300 	and.w	r3, r3, #33554432	; 0x2000000
 8002926:	2b00      	cmp	r3, #0
 8002928:	d1f0      	bne.n	800290c <HAL_RCC_OscConfig+0x400>
          }
        }

        /* Configure the HSE prediv factor --------------------------------*/
        /* It can be written only when the PLL is disabled. Not used in PLL source is different than HSE */
        if(RCC_OscInitStruct->PLL.PLLSource == RCC_PLLSOURCE_HSE)
 800292a:	687b      	ldr	r3, [r7, #4]
 800292c:	6a1b      	ldr	r3, [r3, #32]
 800292e:	f5b3 3f80 	cmp.w	r3, #65536	; 0x10000
 8002932:	d108      	bne.n	8002946 <HAL_RCC_OscConfig+0x43a>
          /* Set PREDIV1 source */
          SET_BIT(RCC->CFGR2, RCC_OscInitStruct->Prediv1Source);
#endif /* RCC_CFGR2_PREDIV1SRC */

          /* Set PREDIV1 Value */
          __HAL_RCC_HSE_PREDIV_CONFIG(RCC_OscInitStruct->HSEPredivValue);
 8002934:	4b24      	ldr	r3, [pc, #144]	; (80029c8 <HAL_RCC_OscConfig+0x4bc>)
 8002936:	685b      	ldr	r3, [r3, #4]
 8002938:	f423 3200 	bic.w	r2, r3, #131072	; 0x20000
 800293c:	687b      	ldr	r3, [r7, #4]
 800293e:	689b      	ldr	r3, [r3, #8]
 8002940:	4921      	ldr	r1, [pc, #132]	; (80029c8 <HAL_RCC_OscConfig+0x4bc>)
 8002942:	4313      	orrs	r3, r2
 8002944:	604b      	str	r3, [r1, #4]
        }

        /* Configure the main PLL clock source and multiplication factors. */
        __HAL_RCC_PLL_CONFIG(RCC_OscInitStruct->PLL.PLLSource,
 8002946:	4b20      	ldr	r3, [pc, #128]	; (80029c8 <HAL_RCC_OscConfig+0x4bc>)
 8002948:	685b      	ldr	r3, [r3, #4]
 800294a:	f423 1274 	bic.w	r2, r3, #3997696	; 0x3d0000
 800294e:	687b      	ldr	r3, [r7, #4]
 8002950:	6a19      	ldr	r1, [r3, #32]
 8002952:	687b      	ldr	r3, [r7, #4]
 8002954:	6a5b      	ldr	r3, [r3, #36]	; 0x24
 8002956:	430b      	orrs	r3, r1
 8002958:	491b      	ldr	r1, [pc, #108]	; (80029c8 <HAL_RCC_OscConfig+0x4bc>)
 800295a:	4313      	orrs	r3, r2
 800295c:	604b      	str	r3, [r1, #4]
                             RCC_OscInitStruct->PLL.PLLMUL);
        /* Enable the main PLL. */
        __HAL_RCC_PLL_ENABLE();
 800295e:	4b1c      	ldr	r3, [pc, #112]	; (80029d0 <HAL_RCC_OscConfig+0x4c4>)
 8002960:	2201      	movs	r2, #1
 8002962:	601a      	str	r2, [r3, #0]

        /* Get Start Tick */
        tickstart = HAL_GetTick();
 8002964:	f7ff fab0 	bl	8001ec8 <HAL_GetTick>
 8002968:	6138      	str	r0, [r7, #16]

        /* Wait till PLL is ready */
        while(__HAL_RCC_GET_FLAG(RCC_FLAG_PLLRDY)  == RESET)
 800296a:	e008      	b.n	800297e <HAL_RCC_OscConfig+0x472>
        {
          if((HAL_GetTick() - tickstart ) > PLL_TIMEOUT_VALUE)
 800296c:	f7ff faac 	bl	8001ec8 <HAL_GetTick>
 8002970:	4602      	mov	r2, r0
 8002972:	693b      	ldr	r3, [r7, #16]
 8002974:	1ad3      	subs	r3, r2, r3
 8002976:	2b02      	cmp	r3, #2
 8002978:	d901      	bls.n	800297e <HAL_RCC_OscConfig+0x472>
          {
            return HAL_TIMEOUT;
 800297a:	2303      	movs	r3, #3
 800297c:	e020      	b.n	80029c0 <HAL_RCC_OscConfig+0x4b4>
        while(__HAL_RCC_GET_FLAG(RCC_FLAG_PLLRDY)  == RESET)
 800297e:	4b12      	ldr	r3, [pc, #72]	; (80029c8 <HAL_RCC_OscConfig+0x4bc>)
 8002980:	681b      	ldr	r3, [r3, #0]
 8002982:	f003 7300 	and.w	r3, r3, #33554432	; 0x2000000
 8002986:	2b00      	cmp	r3, #0
 8002988:	d0f0      	beq.n	800296c <HAL_RCC_OscConfig+0x460>
 800298a:	e018      	b.n	80029be <HAL_RCC_OscConfig+0x4b2>
        }
      }
      else
      {
        /* Disable the main PLL. */
        __HAL_RCC_PLL_DISABLE();
 800298c:	4b10      	ldr	r3, [pc, #64]	; (80029d0 <HAL_RCC_OscConfig+0x4c4>)
 800298e:	2200      	movs	r2, #0
 8002990:	601a      	str	r2, [r3, #0]

        /* Get Start Tick */
        tickstart = HAL_GetTick();
 8002992:	f7ff fa99 	bl	8001ec8 <HAL_GetTick>
 8002996:	6138      	str	r0, [r7, #16]

        /* Wait till PLL is disabled */  
        while(__HAL_RCC_GET_FLAG(RCC_FLAG_PLLRDY)  != RESET)
 8002998:	e008      	b.n	80029ac <HAL_RCC_OscConfig+0x4a0>
        {
          if((HAL_GetTick() - tickstart ) > PLL_TIMEOUT_VALUE)
 800299a:	f7ff fa95 	bl	8001ec8 <HAL_GetTick>
 800299e:	4602      	mov	r2, r0
 80029a0:	693b      	ldr	r3, [r7, #16]
 80029a2:	1ad3      	subs	r3, r2, r3
 80029a4:	2b02      	cmp	r3, #2
 80029a6:	d901      	bls.n	80029ac <HAL_RCC_OscConfig+0x4a0>
          {
            return HAL_TIMEOUT;
 80029a8:	2303      	movs	r3, #3
 80029aa:	e009      	b.n	80029c0 <HAL_RCC_OscConfig+0x4b4>
        while(__HAL_RCC_GET_FLAG(RCC_FLAG_PLLRDY)  != RESET)
 80029ac:	4b06      	ldr	r3, [pc, #24]	; (80029c8 <HAL_RCC_OscConfig+0x4bc>)
 80029ae:	681b      	ldr	r3, [r3, #0]
 80029b0:	f003 7300 	and.w	r3, r3, #33554432	; 0x2000000
 80029b4:	2b00      	cmp	r3, #0
 80029b6:	d1f0      	bne.n	800299a <HAL_RCC_OscConfig+0x48e>
 80029b8:	e001      	b.n	80029be <HAL_RCC_OscConfig+0x4b2>
        }
      }
    }
    else
    {
      return HAL_ERROR;
 80029ba:	2301      	movs	r3, #1
 80029bc:	e000      	b.n	80029c0 <HAL_RCC_OscConfig+0x4b4>
    }
  }
  
  return HAL_OK;
 80029be:	2300      	movs	r3, #0
}
 80029c0:	4618      	mov	r0, r3
 80029c2:	3718      	adds	r7, #24
 80029c4:	46bd      	mov	sp, r7
 80029c6:	bd80      	pop	{r7, pc}
 80029c8:	40021000 	.word	0x40021000
 80029cc:	40007000 	.word	0x40007000
 80029d0:	42420060 	.word	0x42420060

080029d4 <HAL_RCC_ClockConfig>:
  *         You can use @ref HAL_RCC_GetClockConfig() function to know which clock is
  *         currently used as system clock source.
  * @retval HAL status
  */
HAL_StatusTypeDef HAL_RCC_ClockConfig(RCC_ClkInitTypeDef  *RCC_ClkInitStruct, uint32_t FLatency)
{
 80029d4:	b580      	push	{r7, lr}
 80029d6:	b084      	sub	sp, #16
 80029d8:	af00      	add	r7, sp, #0
 80029da:	6078      	str	r0, [r7, #4]
 80029dc:	6039      	str	r1, [r7, #0]
  uint32_t tickstart = 0U;
 80029de:	2300      	movs	r3, #0
 80029e0:	60fb      	str	r3, [r7, #12]
  must be correctly programmed according to the frequency of the CPU clock 
    (HCLK) of the device. */

#if defined(FLASH_ACR_LATENCY)
  /* Increasing the number of wait states because of higher CPU frequency */
  if(FLatency > (FLASH->ACR & FLASH_ACR_LATENCY))
 80029e2:	4b7e      	ldr	r3, [pc, #504]	; (8002bdc <HAL_RCC_ClockConfig+0x208>)
 80029e4:	681b      	ldr	r3, [r3, #0]
 80029e6:	f003 0307 	and.w	r3, r3, #7
 80029ea:	683a      	ldr	r2, [r7, #0]
 80029ec:	429a      	cmp	r2, r3
 80029ee:	d910      	bls.n	8002a12 <HAL_RCC_ClockConfig+0x3e>
  {    
    /* Program the new number of wait states to the LATENCY bits in the FLASH_ACR register */
    __HAL_FLASH_SET_LATENCY(FLatency);
 80029f0:	4b7a      	ldr	r3, [pc, #488]	; (8002bdc <HAL_RCC_ClockConfig+0x208>)
 80029f2:	681b      	ldr	r3, [r3, #0]
 80029f4:	f023 0207 	bic.w	r2, r3, #7
 80029f8:	4978      	ldr	r1, [pc, #480]	; (8002bdc <HAL_RCC_ClockConfig+0x208>)
 80029fa:	683b      	ldr	r3, [r7, #0]
 80029fc:	4313      	orrs	r3, r2
 80029fe:	600b      	str	r3, [r1, #0]

    /* Check that the new number of wait states is taken into account to access the Flash
    memory by reading the FLASH_ACR register */
    if((FLASH->ACR & FLASH_ACR_LATENCY) != FLatency)
 8002a00:	4b76      	ldr	r3, [pc, #472]	; (8002bdc <HAL_RCC_ClockConfig+0x208>)
 8002a02:	681b      	ldr	r3, [r3, #0]
 8002a04:	f003 0307 	and.w	r3, r3, #7
 8002a08:	683a      	ldr	r2, [r7, #0]
 8002a0a:	429a      	cmp	r2, r3
 8002a0c:	d001      	beq.n	8002a12 <HAL_RCC_ClockConfig+0x3e>
    {
      return HAL_ERROR;
 8002a0e:	2301      	movs	r3, #1
 8002a10:	e0e0      	b.n	8002bd4 <HAL_RCC_ClockConfig+0x200>
    }
  }

#endif /* FLASH_ACR_LATENCY */
  /*-------------------------- HCLK Configuration --------------------------*/
  if(((RCC_ClkInitStruct->ClockType) & RCC_CLOCKTYPE_HCLK) == RCC_CLOCKTYPE_HCLK)
 8002a12:	687b      	ldr	r3, [r7, #4]
 8002a14:	681b      	ldr	r3, [r3, #0]
 8002a16:	f003 0302 	and.w	r3, r3, #2
 8002a1a:	2b00      	cmp	r3, #0
 8002a1c:	d020      	beq.n	8002a60 <HAL_RCC_ClockConfig+0x8c>
  {
    /* Set the highest APBx dividers in order to ensure that we do not go through
    a non-spec phase whatever we decrease or increase HCLK. */
    if(((RCC_ClkInitStruct->ClockType) & RCC_CLOCKTYPE_PCLK1) == RCC_CLOCKTYPE_PCLK1)
 8002a1e:	687b      	ldr	r3, [r7, #4]
 8002a20:	681b      	ldr	r3, [r3, #0]
 8002a22:	f003 0304 	and.w	r3, r3, #4
 8002a26:	2b00      	cmp	r3, #0
 8002a28:	d005      	beq.n	8002a36 <HAL_RCC_ClockConfig+0x62>
    {
      MODIFY_REG(RCC->CFGR, RCC_CFGR_PPRE1, RCC_HCLK_DIV16);
 8002a2a:	4b6d      	ldr	r3, [pc, #436]	; (8002be0 <HAL_RCC_ClockConfig+0x20c>)
 8002a2c:	685b      	ldr	r3, [r3, #4]
 8002a2e:	4a6c      	ldr	r2, [pc, #432]	; (8002be0 <HAL_RCC_ClockConfig+0x20c>)
 8002a30:	f443 63e0 	orr.w	r3, r3, #1792	; 0x700
 8002a34:	6053      	str	r3, [r2, #4]
    }

    if(((RCC_ClkInitStruct->ClockType) & RCC_CLOCKTYPE_PCLK2) == RCC_CLOCKTYPE_PCLK2)
 8002a36:	687b      	ldr	r3, [r7, #4]
 8002a38:	681b      	ldr	r3, [r3, #0]
 8002a3a:	f003 0308 	and.w	r3, r3, #8
 8002a3e:	2b00      	cmp	r3, #0
 8002a40:	d005      	beq.n	8002a4e <HAL_RCC_ClockConfig+0x7a>
    {
      MODIFY_REG(RCC->CFGR, RCC_CFGR_PPRE2, (RCC_HCLK_DIV16 << 3));
 8002a42:	4b67      	ldr	r3, [pc, #412]	; (8002be0 <HAL_RCC_ClockConfig+0x20c>)
 8002a44:	685b      	ldr	r3, [r3, #4]
 8002a46:	4a66      	ldr	r2, [pc, #408]	; (8002be0 <HAL_RCC_ClockConfig+0x20c>)
 8002a48:	f443 5360 	orr.w	r3, r3, #14336	; 0x3800
 8002a4c:	6053      	str	r3, [r2, #4]
    }

    /* Set the new HCLK clock divider */
    assert_param(IS_RCC_HCLK(RCC_ClkInitStruct->AHBCLKDivider));
    MODIFY_REG(RCC->CFGR, RCC_CFGR_HPRE, RCC_ClkInitStruct->AHBCLKDivider);
 8002a4e:	4b64      	ldr	r3, [pc, #400]	; (8002be0 <HAL_RCC_ClockConfig+0x20c>)
 8002a50:	685b      	ldr	r3, [r3, #4]
 8002a52:	f023 02f0 	bic.w	r2, r3, #240	; 0xf0
 8002a56:	687b      	ldr	r3, [r7, #4]
 8002a58:	689b      	ldr	r3, [r3, #8]
 8002a5a:	4961      	ldr	r1, [pc, #388]	; (8002be0 <HAL_RCC_ClockConfig+0x20c>)
 8002a5c:	4313      	orrs	r3, r2
 8002a5e:	604b      	str	r3, [r1, #4]
  }

  /*------------------------- SYSCLK Configuration ---------------------------*/ 
  if(((RCC_ClkInitStruct->ClockType) & RCC_CLOCKTYPE_SYSCLK) == RCC_CLOCKTYPE_SYSCLK)
 8002a60:	687b      	ldr	r3, [r7, #4]
 8002a62:	681b      	ldr	r3, [r3, #0]
 8002a64:	f003 0301 	and.w	r3, r3, #1
 8002a68:	2b00      	cmp	r3, #0
 8002a6a:	d06a      	beq.n	8002b42 <HAL_RCC_ClockConfig+0x16e>
  {    
    assert_param(IS_RCC_SYSCLKSOURCE(RCC_ClkInitStruct->SYSCLKSource));

    /* HSE is selected as System Clock Source */
    if(RCC_ClkInitStruct->SYSCLKSource == RCC_SYSCLKSOURCE_HSE)
 8002a6c:	687b      	ldr	r3, [r7, #4]
 8002a6e:	685b      	ldr	r3, [r3, #4]
 8002a70:	2b01      	cmp	r3, #1
 8002a72:	d107      	bne.n	8002a84 <HAL_RCC_ClockConfig+0xb0>
    {
      /* Check the HSE ready flag */  
      if(__HAL_RCC_GET_FLAG(RCC_FLAG_HSERDY) == RESET)
 8002a74:	4b5a      	ldr	r3, [pc, #360]	; (8002be0 <HAL_RCC_ClockConfig+0x20c>)
 8002a76:	681b      	ldr	r3, [r3, #0]
 8002a78:	f403 3300 	and.w	r3, r3, #131072	; 0x20000
 8002a7c:	2b00      	cmp	r3, #0
 8002a7e:	d115      	bne.n	8002aac <HAL_RCC_ClockConfig+0xd8>
      {
        return HAL_ERROR;
 8002a80:	2301      	movs	r3, #1
 8002a82:	e0a7      	b.n	8002bd4 <HAL_RCC_ClockConfig+0x200>
      }
    }
    /* PLL is selected as System Clock Source */
    else if(RCC_ClkInitStruct->SYSCLKSource == RCC_SYSCLKSOURCE_PLLCLK)
 8002a84:	687b      	ldr	r3, [r7, #4]
 8002a86:	685b      	ldr	r3, [r3, #4]
 8002a88:	2b02      	cmp	r3, #2
 8002a8a:	d107      	bne.n	8002a9c <HAL_RCC_ClockConfig+0xc8>
    {
      /* Check the PLL ready flag */  
      if(__HAL_RCC_GET_FLAG(RCC_FLAG_PLLRDY) == RESET)
 8002a8c:	4b54      	ldr	r3, [pc, #336]	; (8002be0 <HAL_RCC_ClockConfig+0x20c>)
 8002a8e:	681b      	ldr	r3, [r3, #0]
 8002a90:	f003 7300 	and.w	r3, r3, #33554432	; 0x2000000
 8002a94:	2b00      	cmp	r3, #0
 8002a96:	d109      	bne.n	8002aac <HAL_RCC_ClockConfig+0xd8>
      {
        return HAL_ERROR;
 8002a98:	2301      	movs	r3, #1
 8002a9a:	e09b      	b.n	8002bd4 <HAL_RCC_ClockConfig+0x200>
    }
    /* HSI is selected as System Clock Source */
    else
    {
      /* Check the HSI ready flag */  
      if(__HAL_RCC_GET_FLAG(RCC_FLAG_HSIRDY) == RESET)
 8002a9c:	4b50      	ldr	r3, [pc, #320]	; (8002be0 <HAL_RCC_ClockConfig+0x20c>)
 8002a9e:	681b      	ldr	r3, [r3, #0]
 8002aa0:	f003 0302 	and.w	r3, r3, #2
 8002aa4:	2b00      	cmp	r3, #0
 8002aa6:	d101      	bne.n	8002aac <HAL_RCC_ClockConfig+0xd8>
      {
        return HAL_ERROR;
 8002aa8:	2301      	movs	r3, #1
 8002aaa:	e093      	b.n	8002bd4 <HAL_RCC_ClockConfig+0x200>
      }
    }
    __HAL_RCC_SYSCLK_CONFIG(RCC_ClkInitStruct->SYSCLKSource);
 8002aac:	4b4c      	ldr	r3, [pc, #304]	; (8002be0 <HAL_RCC_ClockConfig+0x20c>)
 8002aae:	685b      	ldr	r3, [r3, #4]
 8002ab0:	f023 0203 	bic.w	r2, r3, #3
 8002ab4:	687b      	ldr	r3, [r7, #4]
 8002ab6:	685b      	ldr	r3, [r3, #4]
 8002ab8:	4949      	ldr	r1, [pc, #292]	; (8002be0 <HAL_RCC_ClockConfig+0x20c>)
 8002aba:	4313      	orrs	r3, r2
 8002abc:	604b      	str	r3, [r1, #4]

    /* Get Start Tick */
    tickstart = HAL_GetTick();
 8002abe:	f7ff fa03 	bl	8001ec8 <HAL_GetTick>
 8002ac2:	60f8      	str	r0, [r7, #12]

    if(RCC_ClkInitStruct->SYSCLKSource == RCC_SYSCLKSOURCE_HSE)
 8002ac4:	687b      	ldr	r3, [r7, #4]
 8002ac6:	685b      	ldr	r3, [r3, #4]
 8002ac8:	2b01      	cmp	r3, #1
 8002aca:	d112      	bne.n	8002af2 <HAL_RCC_ClockConfig+0x11e>
    {
      while (__HAL_RCC_GET_SYSCLK_SOURCE() != RCC_SYSCLKSOURCE_STATUS_HSE)
 8002acc:	e00a      	b.n	8002ae4 <HAL_RCC_ClockConfig+0x110>
      {
        if((HAL_GetTick() - tickstart ) > CLOCKSWITCH_TIMEOUT_VALUE)
 8002ace:	f7ff f9fb 	bl	8001ec8 <HAL_GetTick>
 8002ad2:	4602      	mov	r2, r0
 8002ad4:	68fb      	ldr	r3, [r7, #12]
 8002ad6:	1ad3      	subs	r3, r2, r3
 8002ad8:	f241 3288 	movw	r2, #5000	; 0x1388
 8002adc:	4293      	cmp	r3, r2
 8002ade:	d901      	bls.n	8002ae4 <HAL_RCC_ClockConfig+0x110>
        {
          return HAL_TIMEOUT;
 8002ae0:	2303      	movs	r3, #3
 8002ae2:	e077      	b.n	8002bd4 <HAL_RCC_ClockConfig+0x200>
      while (__HAL_RCC_GET_SYSCLK_SOURCE() != RCC_SYSCLKSOURCE_STATUS_HSE)
 8002ae4:	4b3e      	ldr	r3, [pc, #248]	; (8002be0 <HAL_RCC_ClockConfig+0x20c>)
 8002ae6:	685b      	ldr	r3, [r3, #4]
 8002ae8:	f003 030c 	and.w	r3, r3, #12
 8002aec:	2b04      	cmp	r3, #4
 8002aee:	d1ee      	bne.n	8002ace <HAL_RCC_ClockConfig+0xfa>
 8002af0:	e027      	b.n	8002b42 <HAL_RCC_ClockConfig+0x16e>
        }
      }
    }
    else if(RCC_ClkInitStruct->SYSCLKSource == RCC_SYSCLKSOURCE_PLLCLK)
 8002af2:	687b      	ldr	r3, [r7, #4]
 8002af4:	685b      	ldr	r3, [r3, #4]
 8002af6:	2b02      	cmp	r3, #2
 8002af8:	d11d      	bne.n	8002b36 <HAL_RCC_ClockConfig+0x162>
    {
      while (__HAL_RCC_GET_SYSCLK_SOURCE() != RCC_SYSCLKSOURCE_STATUS_PLLCLK)
 8002afa:	e00a      	b.n	8002b12 <HAL_RCC_ClockConfig+0x13e>
      {
        if((HAL_GetTick() - tickstart ) > CLOCKSWITCH_TIMEOUT_VALUE)
 8002afc:	f7ff f9e4 	bl	8001ec8 <HAL_GetTick>
 8002b00:	4602      	mov	r2, r0
 8002b02:	68fb      	ldr	r3, [r7, #12]
 8002b04:	1ad3      	subs	r3, r2, r3
 8002b06:	f241 3288 	movw	r2, #5000	; 0x1388
 8002b0a:	4293      	cmp	r3, r2
 8002b0c:	d901      	bls.n	8002b12 <HAL_RCC_ClockConfig+0x13e>
        {
          return HAL_TIMEOUT;
 8002b0e:	2303      	movs	r3, #3
 8002b10:	e060      	b.n	8002bd4 <HAL_RCC_ClockConfig+0x200>
      while (__HAL_RCC_GET_SYSCLK_SOURCE() != RCC_SYSCLKSOURCE_STATUS_PLLCLK)
 8002b12:	4b33      	ldr	r3, [pc, #204]	; (8002be0 <HAL_RCC_ClockConfig+0x20c>)
 8002b14:	685b      	ldr	r3, [r3, #4]
 8002b16:	f003 030c 	and.w	r3, r3, #12
 8002b1a:	2b08      	cmp	r3, #8
 8002b1c:	d1ee      	bne.n	8002afc <HAL_RCC_ClockConfig+0x128>
 8002b1e:	e010      	b.n	8002b42 <HAL_RCC_ClockConfig+0x16e>
    }
    else
    {
      while (__HAL_RCC_GET_SYSCLK_SOURCE() != RCC_SYSCLKSOURCE_STATUS_HSI)
      {
        if((HAL_GetTick() - tickstart ) > CLOCKSWITCH_TIMEOUT_VALUE)
 8002b20:	f7ff f9d2 	bl	8001ec8 <HAL_GetTick>
 8002b24:	4602      	mov	r2, r0
 8002b26:	68fb      	ldr	r3, [r7, #12]
 8002b28:	1ad3      	subs	r3, r2, r3
 8002b2a:	f241 3288 	movw	r2, #5000	; 0x1388
 8002b2e:	4293      	cmp	r3, r2
 8002b30:	d901      	bls.n	8002b36 <HAL_RCC_ClockConfig+0x162>
        {
          return HAL_TIMEOUT;
 8002b32:	2303      	movs	r3, #3
 8002b34:	e04e      	b.n	8002bd4 <HAL_RCC_ClockConfig+0x200>
      while (__HAL_RCC_GET_SYSCLK_SOURCE() != RCC_SYSCLKSOURCE_STATUS_HSI)
 8002b36:	4b2a      	ldr	r3, [pc, #168]	; (8002be0 <HAL_RCC_ClockConfig+0x20c>)
 8002b38:	685b      	ldr	r3, [r3, #4]
 8002b3a:	f003 030c 	and.w	r3, r3, #12
 8002b3e:	2b00      	cmp	r3, #0
 8002b40:	d1ee      	bne.n	8002b20 <HAL_RCC_ClockConfig+0x14c>
      }
    }      
  }    
#if defined(FLASH_ACR_LATENCY)
  /* Decreasing the number of wait states because of lower CPU frequency */
  if(FLatency < (FLASH->ACR & FLASH_ACR_LATENCY))
 8002b42:	4b26      	ldr	r3, [pc, #152]	; (8002bdc <HAL_RCC_ClockConfig+0x208>)
 8002b44:	681b      	ldr	r3, [r3, #0]
 8002b46:	f003 0307 	and.w	r3, r3, #7
 8002b4a:	683a      	ldr	r2, [r7, #0]
 8002b4c:	429a      	cmp	r2, r3
 8002b4e:	d210      	bcs.n	8002b72 <HAL_RCC_ClockConfig+0x19e>
  {    
    /* Program the new number of wait states to the LATENCY bits in the FLASH_ACR register */
    __HAL_FLASH_SET_LATENCY(FLatency);
 8002b50:	4b22      	ldr	r3, [pc, #136]	; (8002bdc <HAL_RCC_ClockConfig+0x208>)
 8002b52:	681b      	ldr	r3, [r3, #0]
 8002b54:	f023 0207 	bic.w	r2, r3, #7
 8002b58:	4920      	ldr	r1, [pc, #128]	; (8002bdc <HAL_RCC_ClockConfig+0x208>)
 8002b5a:	683b      	ldr	r3, [r7, #0]
 8002b5c:	4313      	orrs	r3, r2
 8002b5e:	600b      	str	r3, [r1, #0]

    /* Check that the new number of wait states is taken into account to access the Flash
    memory by reading the FLASH_ACR register */
    if((FLASH->ACR & FLASH_ACR_LATENCY) != FLatency)
 8002b60:	4b1e      	ldr	r3, [pc, #120]	; (8002bdc <HAL_RCC_ClockConfig+0x208>)
 8002b62:	681b      	ldr	r3, [r3, #0]
 8002b64:	f003 0307 	and.w	r3, r3, #7
 8002b68:	683a      	ldr	r2, [r7, #0]
 8002b6a:	429a      	cmp	r2, r3
 8002b6c:	d001      	beq.n	8002b72 <HAL_RCC_ClockConfig+0x19e>
    {
      return HAL_ERROR;
 8002b6e:	2301      	movs	r3, #1
 8002b70:	e030      	b.n	8002bd4 <HAL_RCC_ClockConfig+0x200>
    }
  }    
#endif /* FLASH_ACR_LATENCY */

  /*-------------------------- PCLK1 Configuration ---------------------------*/ 
  if(((RCC_ClkInitStruct->ClockType) & RCC_CLOCKTYPE_PCLK1) == RCC_CLOCKTYPE_PCLK1)
 8002b72:	687b      	ldr	r3, [r7, #4]
 8002b74:	681b      	ldr	r3, [r3, #0]
 8002b76:	f003 0304 	and.w	r3, r3, #4
 8002b7a:	2b00      	cmp	r3, #0
 8002b7c:	d008      	beq.n	8002b90 <HAL_RCC_ClockConfig+0x1bc>
  {
    assert_param(IS_RCC_PCLK(RCC_ClkInitStruct->APB1CLKDivider));
    MODIFY_REG(RCC->CFGR, RCC_CFGR_PPRE1, RCC_ClkInitStruct->APB1CLKDivider);
 8002b7e:	4b18      	ldr	r3, [pc, #96]	; (8002be0 <HAL_RCC_ClockConfig+0x20c>)
 8002b80:	685b      	ldr	r3, [r3, #4]
 8002b82:	f423 62e0 	bic.w	r2, r3, #1792	; 0x700
 8002b86:	687b      	ldr	r3, [r7, #4]
 8002b88:	68db      	ldr	r3, [r3, #12]
 8002b8a:	4915      	ldr	r1, [pc, #84]	; (8002be0 <HAL_RCC_ClockConfig+0x20c>)
 8002b8c:	4313      	orrs	r3, r2
 8002b8e:	604b      	str	r3, [r1, #4]
  }
  
  /*-------------------------- PCLK2 Configuration ---------------------------*/ 
  if(((RCC_ClkInitStruct->ClockType) & RCC_CLOCKTYPE_PCLK2) == RCC_CLOCKTYPE_PCLK2)
 8002b90:	687b      	ldr	r3, [r7, #4]
 8002b92:	681b      	ldr	r3, [r3, #0]
 8002b94:	f003 0308 	and.w	r3, r3, #8
 8002b98:	2b00      	cmp	r3, #0
 8002b9a:	d009      	beq.n	8002bb0 <HAL_RCC_ClockConfig+0x1dc>
  {
    assert_param(IS_RCC_PCLK(RCC_ClkInitStruct->APB2CLKDivider));
    MODIFY_REG(RCC->CFGR, RCC_CFGR_PPRE2, ((RCC_ClkInitStruct->APB2CLKDivider) << 3));
 8002b9c:	4b10      	ldr	r3, [pc, #64]	; (8002be0 <HAL_RCC_ClockConfig+0x20c>)
 8002b9e:	685b      	ldr	r3, [r3, #4]
 8002ba0:	f423 5260 	bic.w	r2, r3, #14336	; 0x3800
 8002ba4:	687b      	ldr	r3, [r7, #4]
 8002ba6:	691b      	ldr	r3, [r3, #16]
 8002ba8:	00db      	lsls	r3, r3, #3
 8002baa:	490d      	ldr	r1, [pc, #52]	; (8002be0 <HAL_RCC_ClockConfig+0x20c>)
 8002bac:	4313      	orrs	r3, r2
 8002bae:	604b      	str	r3, [r1, #4]
  }

  /* Update the SystemCoreClock global variable */
  SystemCoreClock = HAL_RCC_GetSysClockFreq() >> AHBPrescTable[(RCC->CFGR & RCC_CFGR_HPRE)>> RCC_CFGR_HPRE_Pos];
 8002bb0:	f000 f81c 	bl	8002bec <HAL_RCC_GetSysClockFreq>
 8002bb4:	4602      	mov	r2, r0
 8002bb6:	4b0a      	ldr	r3, [pc, #40]	; (8002be0 <HAL_RCC_ClockConfig+0x20c>)
 8002bb8:	685b      	ldr	r3, [r3, #4]
 8002bba:	091b      	lsrs	r3, r3, #4
 8002bbc:	f003 030f 	and.w	r3, r3, #15
 8002bc0:	4908      	ldr	r1, [pc, #32]	; (8002be4 <HAL_RCC_ClockConfig+0x210>)
 8002bc2:	5ccb      	ldrb	r3, [r1, r3]
 8002bc4:	fa22 f303 	lsr.w	r3, r2, r3
 8002bc8:	4a07      	ldr	r2, [pc, #28]	; (8002be8 <HAL_RCC_ClockConfig+0x214>)
 8002bca:	6013      	str	r3, [r2, #0]

  /* Configure the source of time base considering new system clocks settings*/
  HAL_InitTick (TICK_INT_PRIORITY);
 8002bcc:	2000      	movs	r0, #0
 8002bce:	f7ff f939 	bl	8001e44 <HAL_InitTick>
  
  return HAL_OK;
 8002bd2:	2300      	movs	r3, #0
}
 8002bd4:	4618      	mov	r0, r3
 8002bd6:	3710      	adds	r7, #16
 8002bd8:	46bd      	mov	sp, r7
 8002bda:	bd80      	pop	{r7, pc}
 8002bdc:	40022000 	.word	0x40022000
 8002be0:	40021000 	.word	0x40021000
 8002be4:	08003c04 	.word	0x08003c04
 8002be8:	2000009c 	.word	0x2000009c

08002bec <HAL_RCC_GetSysClockFreq>:
  *         right SYSCLK value. Otherwise, any configuration based on this function will be incorrect.
  *         
  * @retval SYSCLK frequency
  */
uint32_t HAL_RCC_GetSysClockFreq(void)
{
 8002bec:	b490      	push	{r4, r7}
 8002bee:	b08a      	sub	sp, #40	; 0x28
 8002bf0:	af00      	add	r7, sp, #0
#if defined(RCC_CFGR2_PREDIV1SRC)
  const uint8_t aPLLMULFactorTable[14] = {0, 0, 4, 5, 6, 7, 8, 9, 0, 0, 0, 0, 0, 13};
  const uint8_t aPredivFactorTable[16] = {1, 2, 3, 4, 5, 6, 7, 8, 9, 10, 11, 12, 13, 14, 15, 16};
#else
  const uint8_t aPLLMULFactorTable[16] = {2, 3, 4, 5, 6, 7, 8, 9, 10, 11, 12, 13, 14, 15, 16, 16};
 8002bf2:	4b29      	ldr	r3, [pc, #164]	; (8002c98 <HAL_RCC_GetSysClockFreq+0xac>)
 8002bf4:	1d3c      	adds	r4, r7, #4
 8002bf6:	cb0f      	ldmia	r3, {r0, r1, r2, r3}
 8002bf8:	e884 000f 	stmia.w	r4, {r0, r1, r2, r3}
#if defined(RCC_CFGR2_PREDIV1)
  const uint8_t aPredivFactorTable[16] = {1, 2, 3, 4, 5, 6, 7, 8, 9, 10, 11, 12, 13, 14, 15, 16};
#else
  const uint8_t aPredivFactorTable[2] = {1, 2};
 8002bfc:	f240 2301 	movw	r3, #513	; 0x201
 8002c00:	803b      	strh	r3, [r7, #0]
#endif /*RCC_CFGR2_PREDIV1*/

#endif
  uint32_t tmpreg = 0U, prediv = 0U, pllclk = 0U, pllmul = 0U;
 8002c02:	2300      	movs	r3, #0
 8002c04:	61fb      	str	r3, [r7, #28]
 8002c06:	2300      	movs	r3, #0
 8002c08:	61bb      	str	r3, [r7, #24]
 8002c0a:	2300      	movs	r3, #0
 8002c0c:	627b      	str	r3, [r7, #36]	; 0x24
 8002c0e:	2300      	movs	r3, #0
 8002c10:	617b      	str	r3, [r7, #20]
  uint32_t sysclockfreq = 0U;
 8002c12:	2300      	movs	r3, #0
 8002c14:	623b      	str	r3, [r7, #32]
#if defined(RCC_CFGR2_PREDIV1SRC)
  uint32_t prediv2 = 0U, pll2mul = 0U;
#endif /*RCC_CFGR2_PREDIV1SRC*/

  tmpreg = RCC->CFGR;
 8002c16:	4b21      	ldr	r3, [pc, #132]	; (8002c9c <HAL_RCC_GetSysClockFreq+0xb0>)
 8002c18:	685b      	ldr	r3, [r3, #4]
 8002c1a:	61fb      	str	r3, [r7, #28]

  /* Get SYSCLK source -------------------------------------------------------*/
  switch (tmpreg & RCC_CFGR_SWS)
 8002c1c:	69fb      	ldr	r3, [r7, #28]
 8002c1e:	f003 030c 	and.w	r3, r3, #12
 8002c22:	2b04      	cmp	r3, #4
 8002c24:	d002      	beq.n	8002c2c <HAL_RCC_GetSysClockFreq+0x40>
 8002c26:	2b08      	cmp	r3, #8
 8002c28:	d003      	beq.n	8002c32 <HAL_RCC_GetSysClockFreq+0x46>
 8002c2a:	e02b      	b.n	8002c84 <HAL_RCC_GetSysClockFreq+0x98>
  {
    case RCC_SYSCLKSOURCE_STATUS_HSE:  /* HSE used as system clock */
    {
      sysclockfreq = HSE_VALUE;
 8002c2c:	4b1c      	ldr	r3, [pc, #112]	; (8002ca0 <HAL_RCC_GetSysClockFreq+0xb4>)
 8002c2e:	623b      	str	r3, [r7, #32]
      break;
 8002c30:	e02b      	b.n	8002c8a <HAL_RCC_GetSysClockFreq+0x9e>
    }
    case RCC_SYSCLKSOURCE_STATUS_PLLCLK:  /* PLL used as system clock */
    {
      pllmul = aPLLMULFactorTable[(uint32_t)(tmpreg & RCC_CFGR_PLLMULL) >> RCC_CFGR_PLLMULL_Pos];
 8002c32:	69fb      	ldr	r3, [r7, #28]
 8002c34:	0c9b      	lsrs	r3, r3, #18
 8002c36:	f003 030f 	and.w	r3, r3, #15
 8002c3a:	3328      	adds	r3, #40	; 0x28
 8002c3c:	443b      	add	r3, r7
 8002c3e:	f813 3c24 	ldrb.w	r3, [r3, #-36]
 8002c42:	617b      	str	r3, [r7, #20]
      if ((tmpreg & RCC_CFGR_PLLSRC) != RCC_PLLSOURCE_HSI_DIV2)
 8002c44:	69fb      	ldr	r3, [r7, #28]
 8002c46:	f403 3380 	and.w	r3, r3, #65536	; 0x10000
 8002c4a:	2b00      	cmp	r3, #0
 8002c4c:	d012      	beq.n	8002c74 <HAL_RCC_GetSysClockFreq+0x88>
      {
#if defined(RCC_CFGR2_PREDIV1)
        prediv = aPredivFactorTable[(uint32_t)(RCC->CFGR2 & RCC_CFGR2_PREDIV1) >> RCC_CFGR2_PREDIV1_Pos];
#else
        prediv = aPredivFactorTable[(uint32_t)(RCC->CFGR & RCC_CFGR_PLLXTPRE) >> RCC_CFGR_PLLXTPRE_Pos];
 8002c4e:	4b13      	ldr	r3, [pc, #76]	; (8002c9c <HAL_RCC_GetSysClockFreq+0xb0>)
 8002c50:	685b      	ldr	r3, [r3, #4]
 8002c52:	0c5b      	lsrs	r3, r3, #17
 8002c54:	f003 0301 	and.w	r3, r3, #1
 8002c58:	3328      	adds	r3, #40	; 0x28
 8002c5a:	443b      	add	r3, r7
 8002c5c:	f813 3c28 	ldrb.w	r3, [r3, #-40]
 8002c60:	61bb      	str	r3, [r7, #24]
        {
            pllclk = pllclk / 2;
        }
#else
        /* HSE used as PLL clock source : PLLCLK = HSE/PREDIV1 * PLLMUL */
        pllclk = (uint32_t)((HSE_VALUE  * pllmul) / prediv);
 8002c62:	697b      	ldr	r3, [r7, #20]
 8002c64:	4a0e      	ldr	r2, [pc, #56]	; (8002ca0 <HAL_RCC_GetSysClockFreq+0xb4>)
 8002c66:	fb03 f202 	mul.w	r2, r3, r2
 8002c6a:	69bb      	ldr	r3, [r7, #24]
 8002c6c:	fbb2 f3f3 	udiv	r3, r2, r3
 8002c70:	627b      	str	r3, [r7, #36]	; 0x24
 8002c72:	e004      	b.n	8002c7e <HAL_RCC_GetSysClockFreq+0x92>
#endif /*RCC_CFGR2_PREDIV1SRC*/
      }
      else
      {
        /* HSI used as PLL clock source : PLLCLK = HSI/2 * PLLMUL */
        pllclk = (uint32_t)((HSI_VALUE >> 1) * pllmul);
 8002c74:	697b      	ldr	r3, [r7, #20]
 8002c76:	4a0b      	ldr	r2, [pc, #44]	; (8002ca4 <HAL_RCC_GetSysClockFreq+0xb8>)
 8002c78:	fb02 f303 	mul.w	r3, r2, r3
 8002c7c:	627b      	str	r3, [r7, #36]	; 0x24
      }
      sysclockfreq = pllclk;
 8002c7e:	6a7b      	ldr	r3, [r7, #36]	; 0x24
 8002c80:	623b      	str	r3, [r7, #32]
      break;
 8002c82:	e002      	b.n	8002c8a <HAL_RCC_GetSysClockFreq+0x9e>
    }
    case RCC_SYSCLKSOURCE_STATUS_HSI:  /* HSI used as system clock source */
    default: /* HSI used as system clock */
    {
      sysclockfreq = HSI_VALUE;
 8002c84:	4b06      	ldr	r3, [pc, #24]	; (8002ca0 <HAL_RCC_GetSysClockFreq+0xb4>)
 8002c86:	623b      	str	r3, [r7, #32]
      break;
 8002c88:	bf00      	nop
    }
  }
  return sysclockfreq;
 8002c8a:	6a3b      	ldr	r3, [r7, #32]
}
 8002c8c:	4618      	mov	r0, r3
 8002c8e:	3728      	adds	r7, #40	; 0x28
 8002c90:	46bd      	mov	sp, r7
 8002c92:	bc90      	pop	{r4, r7}
 8002c94:	4770      	bx	lr
 8002c96:	bf00      	nop
 8002c98:	08003604 	.word	0x08003604
 8002c9c:	40021000 	.word	0x40021000
 8002ca0:	007a1200 	.word	0x007a1200
 8002ca4:	003d0900 	.word	0x003d0900

08002ca8 <HAL_RCC_GetHCLKFreq>:
  * @note   The SystemCoreClock CMSIS variable is used to store System Clock Frequency 
  *         and updated within this function
  * @retval HCLK frequency
  */
uint32_t HAL_RCC_GetHCLKFreq(void)
{
 8002ca8:	b480      	push	{r7}
 8002caa:	af00      	add	r7, sp, #0
  return SystemCoreClock;
 8002cac:	4b02      	ldr	r3, [pc, #8]	; (8002cb8 <HAL_RCC_GetHCLKFreq+0x10>)
 8002cae:	681b      	ldr	r3, [r3, #0]
}
 8002cb0:	4618      	mov	r0, r3
 8002cb2:	46bd      	mov	sp, r7
 8002cb4:	bc80      	pop	{r7}
 8002cb6:	4770      	bx	lr
 8002cb8:	2000009c 	.word	0x2000009c

08002cbc <HAL_RCC_GetPCLK1Freq>:
  * @note   Each time PCLK1 changes, this function must be called to update the
  *         right PCLK1 value. Otherwise, any configuration based on this function will be incorrect.
  * @retval PCLK1 frequency
  */
uint32_t HAL_RCC_GetPCLK1Freq(void)
{
 8002cbc:	b580      	push	{r7, lr}
 8002cbe:	af00      	add	r7, sp, #0
  /* Get HCLK source and Compute PCLK1 frequency ---------------------------*/
  return (HAL_RCC_GetHCLKFreq() >> APBPrescTable[(RCC->CFGR & RCC_CFGR_PPRE1) >> RCC_CFGR_PPRE1_Pos]);
 8002cc0:	f7ff fff2 	bl	8002ca8 <HAL_RCC_GetHCLKFreq>
 8002cc4:	4602      	mov	r2, r0
 8002cc6:	4b05      	ldr	r3, [pc, #20]	; (8002cdc <HAL_RCC_GetPCLK1Freq+0x20>)
 8002cc8:	685b      	ldr	r3, [r3, #4]
 8002cca:	0a1b      	lsrs	r3, r3, #8
 8002ccc:	f003 0307 	and.w	r3, r3, #7
 8002cd0:	4903      	ldr	r1, [pc, #12]	; (8002ce0 <HAL_RCC_GetPCLK1Freq+0x24>)
 8002cd2:	5ccb      	ldrb	r3, [r1, r3]
 8002cd4:	fa22 f303 	lsr.w	r3, r2, r3
}    
 8002cd8:	4618      	mov	r0, r3
 8002cda:	bd80      	pop	{r7, pc}
 8002cdc:	40021000 	.word	0x40021000
 8002ce0:	08003c14 	.word	0x08003c14

08002ce4 <HAL_RCC_GetPCLK2Freq>:
  * @note   Each time PCLK2 changes, this function must be called to update the
  *         right PCLK2 value. Otherwise, any configuration based on this function will be incorrect.
  * @retval PCLK2 frequency
  */
uint32_t HAL_RCC_GetPCLK2Freq(void)
{
 8002ce4:	b580      	push	{r7, lr}
 8002ce6:	af00      	add	r7, sp, #0
  /* Get HCLK source and Compute PCLK2 frequency ---------------------------*/
  return (HAL_RCC_GetHCLKFreq()>> APBPrescTable[(RCC->CFGR & RCC_CFGR_PPRE2) >> RCC_CFGR_PPRE2_Pos]);
 8002ce8:	f7ff ffde 	bl	8002ca8 <HAL_RCC_GetHCLKFreq>
 8002cec:	4602      	mov	r2, r0
 8002cee:	4b05      	ldr	r3, [pc, #20]	; (8002d04 <HAL_RCC_GetPCLK2Freq+0x20>)
 8002cf0:	685b      	ldr	r3, [r3, #4]
 8002cf2:	0adb      	lsrs	r3, r3, #11
 8002cf4:	f003 0307 	and.w	r3, r3, #7
 8002cf8:	4903      	ldr	r1, [pc, #12]	; (8002d08 <HAL_RCC_GetPCLK2Freq+0x24>)
 8002cfa:	5ccb      	ldrb	r3, [r1, r3]
 8002cfc:	fa22 f303 	lsr.w	r3, r2, r3
} 
 8002d00:	4618      	mov	r0, r3
 8002d02:	bd80      	pop	{r7, pc}
 8002d04:	40021000 	.word	0x40021000
 8002d08:	08003c14 	.word	0x08003c14

08002d0c <RCC_Delay>:
  * @brief  This function provides delay (in milliseconds) based on CPU cycles method.
  * @param  mdelay: specifies the delay time length, in milliseconds.
  * @retval None
  */
static void RCC_Delay(uint32_t mdelay)
{
 8002d0c:	b480      	push	{r7}
 8002d0e:	b085      	sub	sp, #20
 8002d10:	af00      	add	r7, sp, #0
 8002d12:	6078      	str	r0, [r7, #4]
  __IO uint32_t Delay = mdelay * (SystemCoreClock / 8U / 1000U);
 8002d14:	4b0b      	ldr	r3, [pc, #44]	; (8002d44 <RCC_Delay+0x38>)
 8002d16:	681b      	ldr	r3, [r3, #0]
 8002d18:	4a0b      	ldr	r2, [pc, #44]	; (8002d48 <RCC_Delay+0x3c>)
 8002d1a:	fba2 2303 	umull	r2, r3, r2, r3
 8002d1e:	0a5b      	lsrs	r3, r3, #9
 8002d20:	687a      	ldr	r2, [r7, #4]
 8002d22:	fb02 f303 	mul.w	r3, r2, r3
 8002d26:	60fb      	str	r3, [r7, #12]
  \brief   No Operation
  \details No Operation does nothing. This instruction can be used for code alignment purposes.
 */
__attribute__((always_inline)) __STATIC_INLINE void __NOP(void)
{
  __ASM volatile ("nop");
 8002d28:	bf00      	nop
}
 8002d2a:	bf00      	nop
  do 
  {
    __NOP();
  } 
  while (Delay --);
 8002d2c:	68fb      	ldr	r3, [r7, #12]
 8002d2e:	1e5a      	subs	r2, r3, #1
 8002d30:	60fa      	str	r2, [r7, #12]
 8002d32:	2b00      	cmp	r3, #0
 8002d34:	d1f8      	bne.n	8002d28 <RCC_Delay+0x1c>
}
 8002d36:	bf00      	nop
 8002d38:	bf00      	nop
 8002d3a:	3714      	adds	r7, #20
 8002d3c:	46bd      	mov	sp, r7
 8002d3e:	bc80      	pop	{r7}
 8002d40:	4770      	bx	lr
 8002d42:	bf00      	nop
 8002d44:	2000009c 	.word	0x2000009c
 8002d48:	10624dd3 	.word	0x10624dd3

08002d4c <HAL_SRAM_Init>:
  * @param  Timing: Pointer to SRAM control timing structure 
  * @param  ExtTiming: Pointer to SRAM extended mode timing structure  
  * @retval HAL status
  */
HAL_StatusTypeDef HAL_SRAM_Init(SRAM_HandleTypeDef *hsram, FSMC_NORSRAM_TimingTypeDef *Timing, FSMC_NORSRAM_TimingTypeDef *ExtTiming)
{ 
 8002d4c:	b580      	push	{r7, lr}
 8002d4e:	b084      	sub	sp, #16
 8002d50:	af00      	add	r7, sp, #0
 8002d52:	60f8      	str	r0, [r7, #12]
 8002d54:	60b9      	str	r1, [r7, #8]
 8002d56:	607a      	str	r2, [r7, #4]
  /* Check the SRAM handle parameter */
  if(hsram == NULL)
 8002d58:	68fb      	ldr	r3, [r7, #12]
 8002d5a:	2b00      	cmp	r3, #0
 8002d5c:	d101      	bne.n	8002d62 <HAL_SRAM_Init+0x16>
  {
     return HAL_ERROR;
 8002d5e:	2301      	movs	r3, #1
 8002d60:	e034      	b.n	8002dcc <HAL_SRAM_Init+0x80>
  }
  
  if(hsram->State == HAL_SRAM_STATE_RESET)
 8002d62:	68fb      	ldr	r3, [r7, #12]
 8002d64:	f893 303d 	ldrb.w	r3, [r3, #61]	; 0x3d
 8002d68:	b2db      	uxtb	r3, r3
 8002d6a:	2b00      	cmp	r3, #0
 8002d6c:	d106      	bne.n	8002d7c <HAL_SRAM_Init+0x30>
  {  
    /* Allocate lock resource and initialize it */
    hsram->Lock = HAL_UNLOCKED;
 8002d6e:	68fb      	ldr	r3, [r7, #12]
 8002d70:	2200      	movs	r2, #0
 8002d72:	f883 203c 	strb.w	r2, [r3, #60]	; 0x3c
    
    /* Initialize the low level hardware (MSP) */
    HAL_SRAM_MspInit(hsram);
 8002d76:	68f8      	ldr	r0, [r7, #12]
 8002d78:	f7fe f82e 	bl	8000dd8 <HAL_SRAM_MspInit>
  }
  
  /* Initialize SRAM control Interface */
  FSMC_NORSRAM_Init(hsram->Instance, &(hsram->Init));
 8002d7c:	68fb      	ldr	r3, [r7, #12]
 8002d7e:	681a      	ldr	r2, [r3, #0]
 8002d80:	68fb      	ldr	r3, [r7, #12]
 8002d82:	3308      	adds	r3, #8
 8002d84:	4619      	mov	r1, r3
 8002d86:	4610      	mov	r0, r2
 8002d88:	f000 fb12 	bl	80033b0 <FSMC_NORSRAM_Init>

  /* Initialize SRAM timing Interface */
  FSMC_NORSRAM_Timing_Init(hsram->Instance, Timing, hsram->Init.NSBank); 
 8002d8c:	68fb      	ldr	r3, [r7, #12]
 8002d8e:	6818      	ldr	r0, [r3, #0]
 8002d90:	68fb      	ldr	r3, [r7, #12]
 8002d92:	689b      	ldr	r3, [r3, #8]
 8002d94:	461a      	mov	r2, r3
 8002d96:	68b9      	ldr	r1, [r7, #8]
 8002d98:	f000 fb8a 	bl	80034b0 <FSMC_NORSRAM_Timing_Init>

  /* Initialize SRAM extended mode timing Interface */
  FSMC_NORSRAM_Extended_Timing_Init(hsram->Extended, ExtTiming, hsram->Init.NSBank,  hsram->Init.ExtendedMode);  
 8002d9c:	68fb      	ldr	r3, [r7, #12]
 8002d9e:	6858      	ldr	r0, [r3, #4]
 8002da0:	68fb      	ldr	r3, [r7, #12]
 8002da2:	689a      	ldr	r2, [r3, #8]
 8002da4:	68fb      	ldr	r3, [r7, #12]
 8002da6:	6b1b      	ldr	r3, [r3, #48]	; 0x30
 8002da8:	6879      	ldr	r1, [r7, #4]
 8002daa:	f000 fbb5 	bl	8003518 <FSMC_NORSRAM_Extended_Timing_Init>
  
  /* Enable the NORSRAM device */
  __FSMC_NORSRAM_ENABLE(hsram->Instance, hsram->Init.NSBank); 
 8002dae:	68fb      	ldr	r3, [r7, #12]
 8002db0:	681b      	ldr	r3, [r3, #0]
 8002db2:	68fa      	ldr	r2, [r7, #12]
 8002db4:	6892      	ldr	r2, [r2, #8]
 8002db6:	f853 1022 	ldr.w	r1, [r3, r2, lsl #2]
 8002dba:	68fb      	ldr	r3, [r7, #12]
 8002dbc:	681b      	ldr	r3, [r3, #0]
 8002dbe:	68fa      	ldr	r2, [r7, #12]
 8002dc0:	6892      	ldr	r2, [r2, #8]
 8002dc2:	f041 0101 	orr.w	r1, r1, #1
 8002dc6:	f843 1022 	str.w	r1, [r3, r2, lsl #2]
  
  return HAL_OK;
 8002dca:	2300      	movs	r3, #0
}
 8002dcc:	4618      	mov	r0, r3
 8002dce:	3710      	adds	r7, #16
 8002dd0:	46bd      	mov	sp, r7
 8002dd2:	bd80      	pop	{r7, pc}

08002dd4 <HAL_UART_Init>:
  * @param  huart: pointer to a UART_HandleTypeDef structure that contains
  *                the configuration information for the specified UART module.
  * @retval HAL status
  */
HAL_StatusTypeDef HAL_UART_Init(UART_HandleTypeDef *huart)
{
 8002dd4:	b580      	push	{r7, lr}
 8002dd6:	b082      	sub	sp, #8
 8002dd8:	af00      	add	r7, sp, #0
 8002dda:	6078      	str	r0, [r7, #4]
  /* Check the UART handle allocation */
  if(huart == NULL)
 8002ddc:	687b      	ldr	r3, [r7, #4]
 8002dde:	2b00      	cmp	r3, #0
 8002de0:	d101      	bne.n	8002de6 <HAL_UART_Init+0x12>
  {
    return HAL_ERROR;
 8002de2:	2301      	movs	r3, #1
 8002de4:	e03f      	b.n	8002e66 <HAL_UART_Init+0x92>
  assert_param(IS_UART_WORD_LENGTH(huart->Init.WordLength));
#if defined(USART_CR1_OVER8)
  assert_param(IS_UART_OVERSAMPLING(huart->Init.OverSampling));
#endif /* USART_CR1_OVER8 */
  
  if(huart->gState == HAL_UART_STATE_RESET)
 8002de6:	687b      	ldr	r3, [r7, #4]
 8002de8:	f893 3039 	ldrb.w	r3, [r3, #57]	; 0x39
 8002dec:	b2db      	uxtb	r3, r3
 8002dee:	2b00      	cmp	r3, #0
 8002df0:	d106      	bne.n	8002e00 <HAL_UART_Init+0x2c>
  {  
    /* Allocate lock resource and initialize it */
    huart->Lock = HAL_UNLOCKED;
 8002df2:	687b      	ldr	r3, [r7, #4]
 8002df4:	2200      	movs	r2, #0
 8002df6:	f883 2038 	strb.w	r2, [r3, #56]	; 0x38

    /* Init the low level hardware */
    HAL_UART_MspInit(huart);
 8002dfa:	6878      	ldr	r0, [r7, #4]
 8002dfc:	f7fe ff4a 	bl	8001c94 <HAL_UART_MspInit>
  }

  huart->gState = HAL_UART_STATE_BUSY;
 8002e00:	687b      	ldr	r3, [r7, #4]
 8002e02:	2224      	movs	r2, #36	; 0x24
 8002e04:	f883 2039 	strb.w	r2, [r3, #57]	; 0x39

  /* Disable the peripheral */
  __HAL_UART_DISABLE(huart);
 8002e08:	687b      	ldr	r3, [r7, #4]
 8002e0a:	681b      	ldr	r3, [r3, #0]
 8002e0c:	68da      	ldr	r2, [r3, #12]
 8002e0e:	687b      	ldr	r3, [r7, #4]
 8002e10:	681b      	ldr	r3, [r3, #0]
 8002e12:	f422 5200 	bic.w	r2, r2, #8192	; 0x2000
 8002e16:	60da      	str	r2, [r3, #12]
  
  /* Set the UART Communication parameters */
  UART_SetConfig(huart);
 8002e18:	6878      	ldr	r0, [r7, #4]
 8002e1a:	f000 f9b1 	bl	8003180 <UART_SetConfig>
  
  /* In asynchronous mode, the following bits must be kept cleared: 
     - LINEN and CLKEN bits in the USART_CR2 register,
     - SCEN, HDSEL and IREN  bits in the USART_CR3 register.*/
  CLEAR_BIT(huart->Instance->CR2, (USART_CR2_LINEN | USART_CR2_CLKEN));
 8002e1e:	687b      	ldr	r3, [r7, #4]
 8002e20:	681b      	ldr	r3, [r3, #0]
 8002e22:	691a      	ldr	r2, [r3, #16]
 8002e24:	687b      	ldr	r3, [r7, #4]
 8002e26:	681b      	ldr	r3, [r3, #0]
 8002e28:	f422 4290 	bic.w	r2, r2, #18432	; 0x4800
 8002e2c:	611a      	str	r2, [r3, #16]
  CLEAR_BIT(huart->Instance->CR3, (USART_CR3_SCEN | USART_CR3_HDSEL | USART_CR3_IREN));
 8002e2e:	687b      	ldr	r3, [r7, #4]
 8002e30:	681b      	ldr	r3, [r3, #0]
 8002e32:	695a      	ldr	r2, [r3, #20]
 8002e34:	687b      	ldr	r3, [r7, #4]
 8002e36:	681b      	ldr	r3, [r3, #0]
 8002e38:	f022 022a 	bic.w	r2, r2, #42	; 0x2a
 8002e3c:	615a      	str	r2, [r3, #20]
  
  /* Enable the peripheral */
  __HAL_UART_ENABLE(huart);
 8002e3e:	687b      	ldr	r3, [r7, #4]
 8002e40:	681b      	ldr	r3, [r3, #0]
 8002e42:	68da      	ldr	r2, [r3, #12]
 8002e44:	687b      	ldr	r3, [r7, #4]
 8002e46:	681b      	ldr	r3, [r3, #0]
 8002e48:	f442 5200 	orr.w	r2, r2, #8192	; 0x2000
 8002e4c:	60da      	str	r2, [r3, #12]
  
  /* Initialize the UART state */
  huart->ErrorCode = HAL_UART_ERROR_NONE;
 8002e4e:	687b      	ldr	r3, [r7, #4]
 8002e50:	2200      	movs	r2, #0
 8002e52:	63da      	str	r2, [r3, #60]	; 0x3c
  huart->gState= HAL_UART_STATE_READY;
 8002e54:	687b      	ldr	r3, [r7, #4]
 8002e56:	2220      	movs	r2, #32
 8002e58:	f883 2039 	strb.w	r2, [r3, #57]	; 0x39
  huart->RxState= HAL_UART_STATE_READY;
 8002e5c:	687b      	ldr	r3, [r7, #4]
 8002e5e:	2220      	movs	r2, #32
 8002e60:	f883 203a 	strb.w	r2, [r3, #58]	; 0x3a
  
  return HAL_OK;
 8002e64:	2300      	movs	r3, #0
}
 8002e66:	4618      	mov	r0, r3
 8002e68:	3708      	adds	r7, #8
 8002e6a:	46bd      	mov	sp, r7
 8002e6c:	bd80      	pop	{r7, pc}

08002e6e <HAL_UART_Transmit>:
  * @param  Size: Amount of data to be sent
  * @param  Timeout: Timeout duration  
  * @retval HAL status
  */
HAL_StatusTypeDef HAL_UART_Transmit(UART_HandleTypeDef *huart, uint8_t *pData, uint16_t Size, uint32_t Timeout)
{
 8002e6e:	b580      	push	{r7, lr}
 8002e70:	b088      	sub	sp, #32
 8002e72:	af02      	add	r7, sp, #8
 8002e74:	60f8      	str	r0, [r7, #12]
 8002e76:	60b9      	str	r1, [r7, #8]
 8002e78:	603b      	str	r3, [r7, #0]
 8002e7a:	4613      	mov	r3, r2
 8002e7c:	80fb      	strh	r3, [r7, #6]
  uint16_t* tmp;
  uint32_t tickstart = 0U;
 8002e7e:	2300      	movs	r3, #0
 8002e80:	617b      	str	r3, [r7, #20]
  
  /* Check that a Tx process is not already ongoing */
  if(huart->gState == HAL_UART_STATE_READY)
 8002e82:	68fb      	ldr	r3, [r7, #12]
 8002e84:	f893 3039 	ldrb.w	r3, [r3, #57]	; 0x39
 8002e88:	b2db      	uxtb	r3, r3
 8002e8a:	2b20      	cmp	r3, #32
 8002e8c:	f040 8083 	bne.w	8002f96 <HAL_UART_Transmit+0x128>
  {
    if((pData == NULL) || (Size == 0U))
 8002e90:	68bb      	ldr	r3, [r7, #8]
 8002e92:	2b00      	cmp	r3, #0
 8002e94:	d002      	beq.n	8002e9c <HAL_UART_Transmit+0x2e>
 8002e96:	88fb      	ldrh	r3, [r7, #6]
 8002e98:	2b00      	cmp	r3, #0
 8002e9a:	d101      	bne.n	8002ea0 <HAL_UART_Transmit+0x32>
    {
      return  HAL_ERROR;
 8002e9c:	2301      	movs	r3, #1
 8002e9e:	e07b      	b.n	8002f98 <HAL_UART_Transmit+0x12a>
    }

    /* Process Locked */
    __HAL_LOCK(huart);
 8002ea0:	68fb      	ldr	r3, [r7, #12]
 8002ea2:	f893 3038 	ldrb.w	r3, [r3, #56]	; 0x38
 8002ea6:	2b01      	cmp	r3, #1
 8002ea8:	d101      	bne.n	8002eae <HAL_UART_Transmit+0x40>
 8002eaa:	2302      	movs	r3, #2
 8002eac:	e074      	b.n	8002f98 <HAL_UART_Transmit+0x12a>
 8002eae:	68fb      	ldr	r3, [r7, #12]
 8002eb0:	2201      	movs	r2, #1
 8002eb2:	f883 2038 	strb.w	r2, [r3, #56]	; 0x38

    huart->ErrorCode = HAL_UART_ERROR_NONE;
 8002eb6:	68fb      	ldr	r3, [r7, #12]
 8002eb8:	2200      	movs	r2, #0
 8002eba:	63da      	str	r2, [r3, #60]	; 0x3c
    huart->gState = HAL_UART_STATE_BUSY_TX;
 8002ebc:	68fb      	ldr	r3, [r7, #12]
 8002ebe:	2221      	movs	r2, #33	; 0x21
 8002ec0:	f883 2039 	strb.w	r2, [r3, #57]	; 0x39

    /* Init tickstart for timeout managment */
    tickstart = HAL_GetTick();
 8002ec4:	f7ff f800 	bl	8001ec8 <HAL_GetTick>
 8002ec8:	6178      	str	r0, [r7, #20]

    huart->TxXferSize = Size;
 8002eca:	68fb      	ldr	r3, [r7, #12]
 8002ecc:	88fa      	ldrh	r2, [r7, #6]
 8002ece:	849a      	strh	r2, [r3, #36]	; 0x24
    huart->TxXferCount = Size;
 8002ed0:	68fb      	ldr	r3, [r7, #12]
 8002ed2:	88fa      	ldrh	r2, [r7, #6]
 8002ed4:	84da      	strh	r2, [r3, #38]	; 0x26
    while(huart->TxXferCount > 0U)
 8002ed6:	e042      	b.n	8002f5e <HAL_UART_Transmit+0xf0>
    {
      huart->TxXferCount--;
 8002ed8:	68fb      	ldr	r3, [r7, #12]
 8002eda:	8cdb      	ldrh	r3, [r3, #38]	; 0x26
 8002edc:	b29b      	uxth	r3, r3
 8002ede:	3b01      	subs	r3, #1
 8002ee0:	b29a      	uxth	r2, r3
 8002ee2:	68fb      	ldr	r3, [r7, #12]
 8002ee4:	84da      	strh	r2, [r3, #38]	; 0x26
      if(huart->Init.WordLength == UART_WORDLENGTH_9B)
 8002ee6:	68fb      	ldr	r3, [r7, #12]
 8002ee8:	689b      	ldr	r3, [r3, #8]
 8002eea:	f5b3 5f80 	cmp.w	r3, #4096	; 0x1000
 8002eee:	d122      	bne.n	8002f36 <HAL_UART_Transmit+0xc8>
      {
        if(UART_WaitOnFlagUntilTimeout(huart, UART_FLAG_TXE, RESET, tickstart, Timeout) != HAL_OK)
 8002ef0:	683b      	ldr	r3, [r7, #0]
 8002ef2:	9300      	str	r3, [sp, #0]
 8002ef4:	697b      	ldr	r3, [r7, #20]
 8002ef6:	2200      	movs	r2, #0
 8002ef8:	2180      	movs	r1, #128	; 0x80
 8002efa:	68f8      	ldr	r0, [r7, #12]
 8002efc:	f000 f8f6 	bl	80030ec <UART_WaitOnFlagUntilTimeout>
 8002f00:	4603      	mov	r3, r0
 8002f02:	2b00      	cmp	r3, #0
 8002f04:	d001      	beq.n	8002f0a <HAL_UART_Transmit+0x9c>
        {
          return HAL_TIMEOUT;
 8002f06:	2303      	movs	r3, #3
 8002f08:	e046      	b.n	8002f98 <HAL_UART_Transmit+0x12a>
        }
        tmp = (uint16_t*) pData;
 8002f0a:	68bb      	ldr	r3, [r7, #8]
 8002f0c:	613b      	str	r3, [r7, #16]
        huart->Instance->DR = (*tmp & (uint16_t)0x01FF);
 8002f0e:	693b      	ldr	r3, [r7, #16]
 8002f10:	881b      	ldrh	r3, [r3, #0]
 8002f12:	461a      	mov	r2, r3
 8002f14:	68fb      	ldr	r3, [r7, #12]
 8002f16:	681b      	ldr	r3, [r3, #0]
 8002f18:	f3c2 0208 	ubfx	r2, r2, #0, #9
 8002f1c:	605a      	str	r2, [r3, #4]
        if(huart->Init.Parity == UART_PARITY_NONE)
 8002f1e:	68fb      	ldr	r3, [r7, #12]
 8002f20:	691b      	ldr	r3, [r3, #16]
 8002f22:	2b00      	cmp	r3, #0
 8002f24:	d103      	bne.n	8002f2e <HAL_UART_Transmit+0xc0>
        {
          pData +=2U;
 8002f26:	68bb      	ldr	r3, [r7, #8]
 8002f28:	3302      	adds	r3, #2
 8002f2a:	60bb      	str	r3, [r7, #8]
 8002f2c:	e017      	b.n	8002f5e <HAL_UART_Transmit+0xf0>
        }
        else
        {
          pData +=1U;
 8002f2e:	68bb      	ldr	r3, [r7, #8]
 8002f30:	3301      	adds	r3, #1
 8002f32:	60bb      	str	r3, [r7, #8]
 8002f34:	e013      	b.n	8002f5e <HAL_UART_Transmit+0xf0>
        }
      }
      else
      {
        if(UART_WaitOnFlagUntilTimeout(huart, UART_FLAG_TXE, RESET, tickstart, Timeout) != HAL_OK)
 8002f36:	683b      	ldr	r3, [r7, #0]
 8002f38:	9300      	str	r3, [sp, #0]
 8002f3a:	697b      	ldr	r3, [r7, #20]
 8002f3c:	2200      	movs	r2, #0
 8002f3e:	2180      	movs	r1, #128	; 0x80
 8002f40:	68f8      	ldr	r0, [r7, #12]
 8002f42:	f000 f8d3 	bl	80030ec <UART_WaitOnFlagUntilTimeout>
 8002f46:	4603      	mov	r3, r0
 8002f48:	2b00      	cmp	r3, #0
 8002f4a:	d001      	beq.n	8002f50 <HAL_UART_Transmit+0xe2>
        {
          return HAL_TIMEOUT;
 8002f4c:	2303      	movs	r3, #3
 8002f4e:	e023      	b.n	8002f98 <HAL_UART_Transmit+0x12a>
        }
        huart->Instance->DR = (*pData++ & (uint8_t)0xFF);
 8002f50:	68bb      	ldr	r3, [r7, #8]
 8002f52:	1c5a      	adds	r2, r3, #1
 8002f54:	60ba      	str	r2, [r7, #8]
 8002f56:	781a      	ldrb	r2, [r3, #0]
 8002f58:	68fb      	ldr	r3, [r7, #12]
 8002f5a:	681b      	ldr	r3, [r3, #0]
 8002f5c:	605a      	str	r2, [r3, #4]
    while(huart->TxXferCount > 0U)
 8002f5e:	68fb      	ldr	r3, [r7, #12]
 8002f60:	8cdb      	ldrh	r3, [r3, #38]	; 0x26
 8002f62:	b29b      	uxth	r3, r3
 8002f64:	2b00      	cmp	r3, #0
 8002f66:	d1b7      	bne.n	8002ed8 <HAL_UART_Transmit+0x6a>
      }
    }

    if(UART_WaitOnFlagUntilTimeout(huart, UART_FLAG_TC, RESET, tickstart, Timeout) != HAL_OK)
 8002f68:	683b      	ldr	r3, [r7, #0]
 8002f6a:	9300      	str	r3, [sp, #0]
 8002f6c:	697b      	ldr	r3, [r7, #20]
 8002f6e:	2200      	movs	r2, #0
 8002f70:	2140      	movs	r1, #64	; 0x40
 8002f72:	68f8      	ldr	r0, [r7, #12]
 8002f74:	f000 f8ba 	bl	80030ec <UART_WaitOnFlagUntilTimeout>
 8002f78:	4603      	mov	r3, r0
 8002f7a:	2b00      	cmp	r3, #0
 8002f7c:	d001      	beq.n	8002f82 <HAL_UART_Transmit+0x114>
    {
      return HAL_TIMEOUT;
 8002f7e:	2303      	movs	r3, #3
 8002f80:	e00a      	b.n	8002f98 <HAL_UART_Transmit+0x12a>
    }

    /* At end of Tx process, restore huart->gState to Ready */
    huart->gState = HAL_UART_STATE_READY;
 8002f82:	68fb      	ldr	r3, [r7, #12]
 8002f84:	2220      	movs	r2, #32
 8002f86:	f883 2039 	strb.w	r2, [r3, #57]	; 0x39

    /* Process Unlocked */
    __HAL_UNLOCK(huart);
 8002f8a:	68fb      	ldr	r3, [r7, #12]
 8002f8c:	2200      	movs	r2, #0
 8002f8e:	f883 2038 	strb.w	r2, [r3, #56]	; 0x38

    return HAL_OK;
 8002f92:	2300      	movs	r3, #0
 8002f94:	e000      	b.n	8002f98 <HAL_UART_Transmit+0x12a>
  }
  else
  {
    return HAL_BUSY;
 8002f96:	2302      	movs	r3, #2
  }
}
 8002f98:	4618      	mov	r0, r3
 8002f9a:	3718      	adds	r7, #24
 8002f9c:	46bd      	mov	sp, r7
 8002f9e:	bd80      	pop	{r7, pc}

08002fa0 <HAL_UART_Receive>:
  * @param  Size: Amount of data to be received
  * @param  Timeout: Timeout duration
  * @retval HAL status
  */
HAL_StatusTypeDef HAL_UART_Receive(UART_HandleTypeDef *huart, uint8_t *pData, uint16_t Size, uint32_t Timeout)
{
 8002fa0:	b580      	push	{r7, lr}
 8002fa2:	b088      	sub	sp, #32
 8002fa4:	af02      	add	r7, sp, #8
 8002fa6:	60f8      	str	r0, [r7, #12]
 8002fa8:	60b9      	str	r1, [r7, #8]
 8002faa:	603b      	str	r3, [r7, #0]
 8002fac:	4613      	mov	r3, r2
 8002fae:	80fb      	strh	r3, [r7, #6]
  uint16_t* tmp;
  uint32_t tickstart = 0U;
 8002fb0:	2300      	movs	r3, #0
 8002fb2:	617b      	str	r3, [r7, #20]
  
  /* Check that a Rx process is not already ongoing */
  if(huart->RxState == HAL_UART_STATE_READY)
 8002fb4:	68fb      	ldr	r3, [r7, #12]
 8002fb6:	f893 303a 	ldrb.w	r3, [r3, #58]	; 0x3a
 8002fba:	b2db      	uxtb	r3, r3
 8002fbc:	2b20      	cmp	r3, #32
 8002fbe:	f040 8090 	bne.w	80030e2 <HAL_UART_Receive+0x142>
  {
    if((pData == NULL) || (Size == 0U))
 8002fc2:	68bb      	ldr	r3, [r7, #8]
 8002fc4:	2b00      	cmp	r3, #0
 8002fc6:	d002      	beq.n	8002fce <HAL_UART_Receive+0x2e>
 8002fc8:	88fb      	ldrh	r3, [r7, #6]
 8002fca:	2b00      	cmp	r3, #0
 8002fcc:	d101      	bne.n	8002fd2 <HAL_UART_Receive+0x32>
    {
      return  HAL_ERROR;
 8002fce:	2301      	movs	r3, #1
 8002fd0:	e088      	b.n	80030e4 <HAL_UART_Receive+0x144>
    }

    /* Process Locked */
    __HAL_LOCK(huart);
 8002fd2:	68fb      	ldr	r3, [r7, #12]
 8002fd4:	f893 3038 	ldrb.w	r3, [r3, #56]	; 0x38
 8002fd8:	2b01      	cmp	r3, #1
 8002fda:	d101      	bne.n	8002fe0 <HAL_UART_Receive+0x40>
 8002fdc:	2302      	movs	r3, #2
 8002fde:	e081      	b.n	80030e4 <HAL_UART_Receive+0x144>
 8002fe0:	68fb      	ldr	r3, [r7, #12]
 8002fe2:	2201      	movs	r2, #1
 8002fe4:	f883 2038 	strb.w	r2, [r3, #56]	; 0x38
    
    huart->ErrorCode = HAL_UART_ERROR_NONE;
 8002fe8:	68fb      	ldr	r3, [r7, #12]
 8002fea:	2200      	movs	r2, #0
 8002fec:	63da      	str	r2, [r3, #60]	; 0x3c
    huart->RxState = HAL_UART_STATE_BUSY_RX;
 8002fee:	68fb      	ldr	r3, [r7, #12]
 8002ff0:	2222      	movs	r2, #34	; 0x22
 8002ff2:	f883 203a 	strb.w	r2, [r3, #58]	; 0x3a

    /* Init tickstart for timeout managment */
    tickstart = HAL_GetTick();
 8002ff6:	f7fe ff67 	bl	8001ec8 <HAL_GetTick>
 8002ffa:	6178      	str	r0, [r7, #20]

    huart->RxXferSize = Size;
 8002ffc:	68fb      	ldr	r3, [r7, #12]
 8002ffe:	88fa      	ldrh	r2, [r7, #6]
 8003000:	859a      	strh	r2, [r3, #44]	; 0x2c
    huart->RxXferCount = Size;
 8003002:	68fb      	ldr	r3, [r7, #12]
 8003004:	88fa      	ldrh	r2, [r7, #6]
 8003006:	85da      	strh	r2, [r3, #46]	; 0x2e

    /* Check the remain data to be received */
    while(huart->RxXferCount > 0U)
 8003008:	e05c      	b.n	80030c4 <HAL_UART_Receive+0x124>
    {
      huart->RxXferCount--;
 800300a:	68fb      	ldr	r3, [r7, #12]
 800300c:	8ddb      	ldrh	r3, [r3, #46]	; 0x2e
 800300e:	b29b      	uxth	r3, r3
 8003010:	3b01      	subs	r3, #1
 8003012:	b29a      	uxth	r2, r3
 8003014:	68fb      	ldr	r3, [r7, #12]
 8003016:	85da      	strh	r2, [r3, #46]	; 0x2e
      if(huart->Init.WordLength == UART_WORDLENGTH_9B)
 8003018:	68fb      	ldr	r3, [r7, #12]
 800301a:	689b      	ldr	r3, [r3, #8]
 800301c:	f5b3 5f80 	cmp.w	r3, #4096	; 0x1000
 8003020:	d12b      	bne.n	800307a <HAL_UART_Receive+0xda>
      {
        if(UART_WaitOnFlagUntilTimeout(huart, UART_FLAG_RXNE, RESET, tickstart, Timeout) != HAL_OK)
 8003022:	683b      	ldr	r3, [r7, #0]
 8003024:	9300      	str	r3, [sp, #0]
 8003026:	697b      	ldr	r3, [r7, #20]
 8003028:	2200      	movs	r2, #0
 800302a:	2120      	movs	r1, #32
 800302c:	68f8      	ldr	r0, [r7, #12]
 800302e:	f000 f85d 	bl	80030ec <UART_WaitOnFlagUntilTimeout>
 8003032:	4603      	mov	r3, r0
 8003034:	2b00      	cmp	r3, #0
 8003036:	d001      	beq.n	800303c <HAL_UART_Receive+0x9c>
        {
          return HAL_TIMEOUT;
 8003038:	2303      	movs	r3, #3
 800303a:	e053      	b.n	80030e4 <HAL_UART_Receive+0x144>
        }
        tmp = (uint16_t*)pData;
 800303c:	68bb      	ldr	r3, [r7, #8]
 800303e:	613b      	str	r3, [r7, #16]
        if(huart->Init.Parity == UART_PARITY_NONE)
 8003040:	68fb      	ldr	r3, [r7, #12]
 8003042:	691b      	ldr	r3, [r3, #16]
 8003044:	2b00      	cmp	r3, #0
 8003046:	d10c      	bne.n	8003062 <HAL_UART_Receive+0xc2>
        {
          *tmp = (uint16_t)(huart->Instance->DR & (uint16_t)0x01FF);
 8003048:	68fb      	ldr	r3, [r7, #12]
 800304a:	681b      	ldr	r3, [r3, #0]
 800304c:	685b      	ldr	r3, [r3, #4]
 800304e:	b29b      	uxth	r3, r3
 8003050:	f3c3 0308 	ubfx	r3, r3, #0, #9
 8003054:	b29a      	uxth	r2, r3
 8003056:	693b      	ldr	r3, [r7, #16]
 8003058:	801a      	strh	r2, [r3, #0]
          pData +=2U;
 800305a:	68bb      	ldr	r3, [r7, #8]
 800305c:	3302      	adds	r3, #2
 800305e:	60bb      	str	r3, [r7, #8]
 8003060:	e030      	b.n	80030c4 <HAL_UART_Receive+0x124>
        }
        else
        {
          *tmp = (uint16_t)(huart->Instance->DR & (uint16_t)0x00FF);
 8003062:	68fb      	ldr	r3, [r7, #12]
 8003064:	681b      	ldr	r3, [r3, #0]
 8003066:	685b      	ldr	r3, [r3, #4]
 8003068:	b29b      	uxth	r3, r3
 800306a:	b2db      	uxtb	r3, r3
 800306c:	b29a      	uxth	r2, r3
 800306e:	693b      	ldr	r3, [r7, #16]
 8003070:	801a      	strh	r2, [r3, #0]
          pData +=1U;
 8003072:	68bb      	ldr	r3, [r7, #8]
 8003074:	3301      	adds	r3, #1
 8003076:	60bb      	str	r3, [r7, #8]
 8003078:	e024      	b.n	80030c4 <HAL_UART_Receive+0x124>
        }

      } 
      else
      {
        if(UART_WaitOnFlagUntilTimeout(huart, UART_FLAG_RXNE, RESET, tickstart, Timeout) != HAL_OK)
 800307a:	683b      	ldr	r3, [r7, #0]
 800307c:	9300      	str	r3, [sp, #0]
 800307e:	697b      	ldr	r3, [r7, #20]
 8003080:	2200      	movs	r2, #0
 8003082:	2120      	movs	r1, #32
 8003084:	68f8      	ldr	r0, [r7, #12]
 8003086:	f000 f831 	bl	80030ec <UART_WaitOnFlagUntilTimeout>
 800308a:	4603      	mov	r3, r0
 800308c:	2b00      	cmp	r3, #0
 800308e:	d001      	beq.n	8003094 <HAL_UART_Receive+0xf4>
        {
          return HAL_TIMEOUT;
 8003090:	2303      	movs	r3, #3
 8003092:	e027      	b.n	80030e4 <HAL_UART_Receive+0x144>
        }
        if(huart->Init.Parity == UART_PARITY_NONE)
 8003094:	68fb      	ldr	r3, [r7, #12]
 8003096:	691b      	ldr	r3, [r3, #16]
 8003098:	2b00      	cmp	r3, #0
 800309a:	d108      	bne.n	80030ae <HAL_UART_Receive+0x10e>
        {
          *pData++ = (uint8_t)(huart->Instance->DR & (uint8_t)0x00FF);
 800309c:	68fb      	ldr	r3, [r7, #12]
 800309e:	681b      	ldr	r3, [r3, #0]
 80030a0:	6859      	ldr	r1, [r3, #4]
 80030a2:	68bb      	ldr	r3, [r7, #8]
 80030a4:	1c5a      	adds	r2, r3, #1
 80030a6:	60ba      	str	r2, [r7, #8]
 80030a8:	b2ca      	uxtb	r2, r1
 80030aa:	701a      	strb	r2, [r3, #0]
 80030ac:	e00a      	b.n	80030c4 <HAL_UART_Receive+0x124>
        }
        else
        {
          *pData++ = (uint8_t)(huart->Instance->DR & (uint8_t)0x007F);
 80030ae:	68fb      	ldr	r3, [r7, #12]
 80030b0:	681b      	ldr	r3, [r3, #0]
 80030b2:	685b      	ldr	r3, [r3, #4]
 80030b4:	b2da      	uxtb	r2, r3
 80030b6:	68bb      	ldr	r3, [r7, #8]
 80030b8:	1c59      	adds	r1, r3, #1
 80030ba:	60b9      	str	r1, [r7, #8]
 80030bc:	f002 027f 	and.w	r2, r2, #127	; 0x7f
 80030c0:	b2d2      	uxtb	r2, r2
 80030c2:	701a      	strb	r2, [r3, #0]
    while(huart->RxXferCount > 0U)
 80030c4:	68fb      	ldr	r3, [r7, #12]
 80030c6:	8ddb      	ldrh	r3, [r3, #46]	; 0x2e
 80030c8:	b29b      	uxth	r3, r3
 80030ca:	2b00      	cmp	r3, #0
 80030cc:	d19d      	bne.n	800300a <HAL_UART_Receive+0x6a>

      }
    }

    /* At end of Rx process, restore huart->RxState to Ready */
    huart->RxState = HAL_UART_STATE_READY;
 80030ce:	68fb      	ldr	r3, [r7, #12]
 80030d0:	2220      	movs	r2, #32
 80030d2:	f883 203a 	strb.w	r2, [r3, #58]	; 0x3a
    
    /* Process Unlocked */
    __HAL_UNLOCK(huart);
 80030d6:	68fb      	ldr	r3, [r7, #12]
 80030d8:	2200      	movs	r2, #0
 80030da:	f883 2038 	strb.w	r2, [r3, #56]	; 0x38

    return HAL_OK;
 80030de:	2300      	movs	r3, #0
 80030e0:	e000      	b.n	80030e4 <HAL_UART_Receive+0x144>
  }
  else
  {
    return HAL_BUSY;
 80030e2:	2302      	movs	r3, #2
  }
}
 80030e4:	4618      	mov	r0, r3
 80030e6:	3718      	adds	r7, #24
 80030e8:	46bd      	mov	sp, r7
 80030ea:	bd80      	pop	{r7, pc}

080030ec <UART_WaitOnFlagUntilTimeout>:
  * @param  Tickstart Tick start value
  * @param  Timeout: Timeout duration
  * @retval HAL status
  */
static HAL_StatusTypeDef UART_WaitOnFlagUntilTimeout(UART_HandleTypeDef *huart, uint32_t Flag, FlagStatus Status, uint32_t Tickstart, uint32_t Timeout)
{
 80030ec:	b580      	push	{r7, lr}
 80030ee:	b084      	sub	sp, #16
 80030f0:	af00      	add	r7, sp, #0
 80030f2:	60f8      	str	r0, [r7, #12]
 80030f4:	60b9      	str	r1, [r7, #8]
 80030f6:	603b      	str	r3, [r7, #0]
 80030f8:	4613      	mov	r3, r2
 80030fa:	71fb      	strb	r3, [r7, #7]
  /* Wait until flag is set */
  while((__HAL_UART_GET_FLAG(huart, Flag) ? SET : RESET) == Status) 
 80030fc:	e02c      	b.n	8003158 <UART_WaitOnFlagUntilTimeout+0x6c>
  {
    /* Check for the Timeout */
    if(Timeout != HAL_MAX_DELAY)
 80030fe:	69bb      	ldr	r3, [r7, #24]
 8003100:	f1b3 3fff 	cmp.w	r3, #4294967295	; 0xffffffff
 8003104:	d028      	beq.n	8003158 <UART_WaitOnFlagUntilTimeout+0x6c>
    {
      if((Timeout == 0U)||((HAL_GetTick() - Tickstart ) > Timeout))
 8003106:	69bb      	ldr	r3, [r7, #24]
 8003108:	2b00      	cmp	r3, #0
 800310a:	d007      	beq.n	800311c <UART_WaitOnFlagUntilTimeout+0x30>
 800310c:	f7fe fedc 	bl	8001ec8 <HAL_GetTick>
 8003110:	4602      	mov	r2, r0
 8003112:	683b      	ldr	r3, [r7, #0]
 8003114:	1ad3      	subs	r3, r2, r3
 8003116:	69ba      	ldr	r2, [r7, #24]
 8003118:	429a      	cmp	r2, r3
 800311a:	d21d      	bcs.n	8003158 <UART_WaitOnFlagUntilTimeout+0x6c>
      {
        /* Disable TXE, RXNE, PE and ERR (Frame error, noise error, overrun error) interrupts for the interrupt process */
        CLEAR_BIT(huart->Instance->CR1, (USART_CR1_RXNEIE | USART_CR1_PEIE | USART_CR1_TXEIE));
 800311c:	68fb      	ldr	r3, [r7, #12]
 800311e:	681b      	ldr	r3, [r3, #0]
 8003120:	68da      	ldr	r2, [r3, #12]
 8003122:	68fb      	ldr	r3, [r7, #12]
 8003124:	681b      	ldr	r3, [r3, #0]
 8003126:	f422 72d0 	bic.w	r2, r2, #416	; 0x1a0
 800312a:	60da      	str	r2, [r3, #12]
        CLEAR_BIT(huart->Instance->CR3, USART_CR3_EIE);
 800312c:	68fb      	ldr	r3, [r7, #12]
 800312e:	681b      	ldr	r3, [r3, #0]
 8003130:	695a      	ldr	r2, [r3, #20]
 8003132:	68fb      	ldr	r3, [r7, #12]
 8003134:	681b      	ldr	r3, [r3, #0]
 8003136:	f022 0201 	bic.w	r2, r2, #1
 800313a:	615a      	str	r2, [r3, #20]
        
        huart->gState  = HAL_UART_STATE_READY;
 800313c:	68fb      	ldr	r3, [r7, #12]
 800313e:	2220      	movs	r2, #32
 8003140:	f883 2039 	strb.w	r2, [r3, #57]	; 0x39
        huart->RxState = HAL_UART_STATE_READY;
 8003144:	68fb      	ldr	r3, [r7, #12]
 8003146:	2220      	movs	r2, #32
 8003148:	f883 203a 	strb.w	r2, [r3, #58]	; 0x3a
        
        /* Process Unlocked */
        __HAL_UNLOCK(huart);
 800314c:	68fb      	ldr	r3, [r7, #12]
 800314e:	2200      	movs	r2, #0
 8003150:	f883 2038 	strb.w	r2, [r3, #56]	; 0x38
        
        return HAL_TIMEOUT;
 8003154:	2303      	movs	r3, #3
 8003156:	e00f      	b.n	8003178 <UART_WaitOnFlagUntilTimeout+0x8c>
  while((__HAL_UART_GET_FLAG(huart, Flag) ? SET : RESET) == Status) 
 8003158:	68fb      	ldr	r3, [r7, #12]
 800315a:	681b      	ldr	r3, [r3, #0]
 800315c:	681a      	ldr	r2, [r3, #0]
 800315e:	68bb      	ldr	r3, [r7, #8]
 8003160:	4013      	ands	r3, r2
 8003162:	68ba      	ldr	r2, [r7, #8]
 8003164:	429a      	cmp	r2, r3
 8003166:	bf0c      	ite	eq
 8003168:	2301      	moveq	r3, #1
 800316a:	2300      	movne	r3, #0
 800316c:	b2db      	uxtb	r3, r3
 800316e:	461a      	mov	r2, r3
 8003170:	79fb      	ldrb	r3, [r7, #7]
 8003172:	429a      	cmp	r2, r3
 8003174:	d0c3      	beq.n	80030fe <UART_WaitOnFlagUntilTimeout+0x12>
      }
    }
  }
  
  return HAL_OK;
 8003176:	2300      	movs	r3, #0
}
 8003178:	4618      	mov	r0, r3
 800317a:	3710      	adds	r7, #16
 800317c:	46bd      	mov	sp, r7
 800317e:	bd80      	pop	{r7, pc}

08003180 <UART_SetConfig>:
  * @param  huart: pointer to a UART_HandleTypeDef structure that contains
  *                the configuration information for the specified UART module.
  * @retval None
  */
static void UART_SetConfig(UART_HandleTypeDef *huart)
{
 8003180:	b5b0      	push	{r4, r5, r7, lr}
 8003182:	b084      	sub	sp, #16
 8003184:	af00      	add	r7, sp, #0
 8003186:	6078      	str	r0, [r7, #4]
  uint32_t tmpreg = 0x00U;
 8003188:	2300      	movs	r3, #0
 800318a:	60fb      	str	r3, [r7, #12]
  assert_param(IS_UART_MODE(huart->Init.Mode));

  /*------- UART-associated USART registers setting : CR2 Configuration ------*/
  /* Configure the UART Stop Bits: Set STOP[13:12] bits according 
   * to huart->Init.StopBits value */
  MODIFY_REG(huart->Instance->CR2, USART_CR2_STOP, huart->Init.StopBits);
 800318c:	687b      	ldr	r3, [r7, #4]
 800318e:	681b      	ldr	r3, [r3, #0]
 8003190:	691b      	ldr	r3, [r3, #16]
 8003192:	f423 5140 	bic.w	r1, r3, #12288	; 0x3000
 8003196:	687b      	ldr	r3, [r7, #4]
 8003198:	68da      	ldr	r2, [r3, #12]
 800319a:	687b      	ldr	r3, [r7, #4]
 800319c:	681b      	ldr	r3, [r3, #0]
 800319e:	430a      	orrs	r2, r1
 80031a0:	611a      	str	r2, [r3, #16]
  tmpreg |= (uint32_t)huart->Init.WordLength | huart->Init.Parity | huart->Init.Mode | huart->Init.OverSampling;
  MODIFY_REG(huart->Instance->CR1, 
             (uint32_t)(USART_CR1_M | USART_CR1_PCE | USART_CR1_PS | USART_CR1_TE | USART_CR1_RE | USART_CR1_OVER8), 
             tmpreg);
#else
  tmpreg |= (uint32_t)huart->Init.WordLength | huart->Init.Parity | huart->Init.Mode;
 80031a2:	687b      	ldr	r3, [r7, #4]
 80031a4:	689a      	ldr	r2, [r3, #8]
 80031a6:	687b      	ldr	r3, [r7, #4]
 80031a8:	691b      	ldr	r3, [r3, #16]
 80031aa:	431a      	orrs	r2, r3
 80031ac:	687b      	ldr	r3, [r7, #4]
 80031ae:	695b      	ldr	r3, [r3, #20]
 80031b0:	4313      	orrs	r3, r2
 80031b2:	68fa      	ldr	r2, [r7, #12]
 80031b4:	4313      	orrs	r3, r2
 80031b6:	60fb      	str	r3, [r7, #12]
  MODIFY_REG(huart->Instance->CR1, 
 80031b8:	687b      	ldr	r3, [r7, #4]
 80031ba:	681b      	ldr	r3, [r3, #0]
 80031bc:	68db      	ldr	r3, [r3, #12]
 80031be:	f423 53b0 	bic.w	r3, r3, #5632	; 0x1600
 80031c2:	f023 030c 	bic.w	r3, r3, #12
 80031c6:	687a      	ldr	r2, [r7, #4]
 80031c8:	6812      	ldr	r2, [r2, #0]
 80031ca:	68f9      	ldr	r1, [r7, #12]
 80031cc:	430b      	orrs	r3, r1
 80031ce:	60d3      	str	r3, [r2, #12]
             tmpreg);
#endif /* USART_CR1_OVER8 */

  /*------- UART-associated USART registers setting : CR3 Configuration ------*/
  /* Configure the UART HFC: Set CTSE and RTSE bits according to huart->Init.HwFlowCtl value */
  MODIFY_REG(huart->Instance->CR3, (USART_CR3_RTSE | USART_CR3_CTSE), huart->Init.HwFlowCtl);
 80031d0:	687b      	ldr	r3, [r7, #4]
 80031d2:	681b      	ldr	r3, [r3, #0]
 80031d4:	695b      	ldr	r3, [r3, #20]
 80031d6:	f423 7140 	bic.w	r1, r3, #768	; 0x300
 80031da:	687b      	ldr	r3, [r7, #4]
 80031dc:	699a      	ldr	r2, [r3, #24]
 80031de:	687b      	ldr	r3, [r7, #4]
 80031e0:	681b      	ldr	r3, [r3, #0]
 80031e2:	430a      	orrs	r2, r1
 80031e4:	615a      	str	r2, [r3, #20]
      huart->Instance->BRR = UART_BRR_SAMPLING16(HAL_RCC_GetPCLK1Freq(), huart->Init.BaudRate);
    }
  }
#else
  /*-------------------------- USART BRR Configuration ---------------------*/
  if(huart->Instance == USART1)
 80031e6:	687b      	ldr	r3, [r7, #4]
 80031e8:	681b      	ldr	r3, [r3, #0]
 80031ea:	4a6f      	ldr	r2, [pc, #444]	; (80033a8 <UART_SetConfig+0x228>)
 80031ec:	4293      	cmp	r3, r2
 80031ee:	d16b      	bne.n	80032c8 <UART_SetConfig+0x148>
  {
    huart->Instance->BRR = UART_BRR_SAMPLING16(HAL_RCC_GetPCLK2Freq(), huart->Init.BaudRate);
 80031f0:	f7ff fd78 	bl	8002ce4 <HAL_RCC_GetPCLK2Freq>
 80031f4:	4602      	mov	r2, r0
 80031f6:	4613      	mov	r3, r2
 80031f8:	009b      	lsls	r3, r3, #2
 80031fa:	4413      	add	r3, r2
 80031fc:	009a      	lsls	r2, r3, #2
 80031fe:	441a      	add	r2, r3
 8003200:	687b      	ldr	r3, [r7, #4]
 8003202:	685b      	ldr	r3, [r3, #4]
 8003204:	009b      	lsls	r3, r3, #2
 8003206:	fbb2 f3f3 	udiv	r3, r2, r3
 800320a:	4a68      	ldr	r2, [pc, #416]	; (80033ac <UART_SetConfig+0x22c>)
 800320c:	fba2 2303 	umull	r2, r3, r2, r3
 8003210:	095b      	lsrs	r3, r3, #5
 8003212:	011c      	lsls	r4, r3, #4
 8003214:	f7ff fd66 	bl	8002ce4 <HAL_RCC_GetPCLK2Freq>
 8003218:	4602      	mov	r2, r0
 800321a:	4613      	mov	r3, r2
 800321c:	009b      	lsls	r3, r3, #2
 800321e:	4413      	add	r3, r2
 8003220:	009a      	lsls	r2, r3, #2
 8003222:	441a      	add	r2, r3
 8003224:	687b      	ldr	r3, [r7, #4]
 8003226:	685b      	ldr	r3, [r3, #4]
 8003228:	009b      	lsls	r3, r3, #2
 800322a:	fbb2 f5f3 	udiv	r5, r2, r3
 800322e:	f7ff fd59 	bl	8002ce4 <HAL_RCC_GetPCLK2Freq>
 8003232:	4602      	mov	r2, r0
 8003234:	4613      	mov	r3, r2
 8003236:	009b      	lsls	r3, r3, #2
 8003238:	4413      	add	r3, r2
 800323a:	009a      	lsls	r2, r3, #2
 800323c:	441a      	add	r2, r3
 800323e:	687b      	ldr	r3, [r7, #4]
 8003240:	685b      	ldr	r3, [r3, #4]
 8003242:	009b      	lsls	r3, r3, #2
 8003244:	fbb2 f3f3 	udiv	r3, r2, r3
 8003248:	4a58      	ldr	r2, [pc, #352]	; (80033ac <UART_SetConfig+0x22c>)
 800324a:	fba2 2303 	umull	r2, r3, r2, r3
 800324e:	095b      	lsrs	r3, r3, #5
 8003250:	2264      	movs	r2, #100	; 0x64
 8003252:	fb02 f303 	mul.w	r3, r2, r3
 8003256:	1aeb      	subs	r3, r5, r3
 8003258:	011b      	lsls	r3, r3, #4
 800325a:	3332      	adds	r3, #50	; 0x32
 800325c:	4a53      	ldr	r2, [pc, #332]	; (80033ac <UART_SetConfig+0x22c>)
 800325e:	fba2 2303 	umull	r2, r3, r2, r3
 8003262:	095b      	lsrs	r3, r3, #5
 8003264:	f003 03f0 	and.w	r3, r3, #240	; 0xf0
 8003268:	441c      	add	r4, r3
 800326a:	f7ff fd3b 	bl	8002ce4 <HAL_RCC_GetPCLK2Freq>
 800326e:	4602      	mov	r2, r0
 8003270:	4613      	mov	r3, r2
 8003272:	009b      	lsls	r3, r3, #2
 8003274:	4413      	add	r3, r2
 8003276:	009a      	lsls	r2, r3, #2
 8003278:	441a      	add	r2, r3
 800327a:	687b      	ldr	r3, [r7, #4]
 800327c:	685b      	ldr	r3, [r3, #4]
 800327e:	009b      	lsls	r3, r3, #2
 8003280:	fbb2 f5f3 	udiv	r5, r2, r3
 8003284:	f7ff fd2e 	bl	8002ce4 <HAL_RCC_GetPCLK2Freq>
 8003288:	4602      	mov	r2, r0
 800328a:	4613      	mov	r3, r2
 800328c:	009b      	lsls	r3, r3, #2
 800328e:	4413      	add	r3, r2
 8003290:	009a      	lsls	r2, r3, #2
 8003292:	441a      	add	r2, r3
 8003294:	687b      	ldr	r3, [r7, #4]
 8003296:	685b      	ldr	r3, [r3, #4]
 8003298:	009b      	lsls	r3, r3, #2
 800329a:	fbb2 f3f3 	udiv	r3, r2, r3
 800329e:	4a43      	ldr	r2, [pc, #268]	; (80033ac <UART_SetConfig+0x22c>)
 80032a0:	fba2 2303 	umull	r2, r3, r2, r3
 80032a4:	095b      	lsrs	r3, r3, #5
 80032a6:	2264      	movs	r2, #100	; 0x64
 80032a8:	fb02 f303 	mul.w	r3, r2, r3
 80032ac:	1aeb      	subs	r3, r5, r3
 80032ae:	011b      	lsls	r3, r3, #4
 80032b0:	3332      	adds	r3, #50	; 0x32
 80032b2:	4a3e      	ldr	r2, [pc, #248]	; (80033ac <UART_SetConfig+0x22c>)
 80032b4:	fba2 2303 	umull	r2, r3, r2, r3
 80032b8:	095b      	lsrs	r3, r3, #5
 80032ba:	f003 020f 	and.w	r2, r3, #15
 80032be:	687b      	ldr	r3, [r7, #4]
 80032c0:	681b      	ldr	r3, [r3, #0]
 80032c2:	4422      	add	r2, r4
 80032c4:	609a      	str	r2, [r3, #8]
  else
  {
    huart->Instance->BRR = UART_BRR_SAMPLING16(HAL_RCC_GetPCLK1Freq(), huart->Init.BaudRate);
  }
#endif /* USART_CR1_OVER8 */
}
 80032c6:	e06a      	b.n	800339e <UART_SetConfig+0x21e>
    huart->Instance->BRR = UART_BRR_SAMPLING16(HAL_RCC_GetPCLK1Freq(), huart->Init.BaudRate);
 80032c8:	f7ff fcf8 	bl	8002cbc <HAL_RCC_GetPCLK1Freq>
 80032cc:	4602      	mov	r2, r0
 80032ce:	4613      	mov	r3, r2
 80032d0:	009b      	lsls	r3, r3, #2
 80032d2:	4413      	add	r3, r2
 80032d4:	009a      	lsls	r2, r3, #2
 80032d6:	441a      	add	r2, r3
 80032d8:	687b      	ldr	r3, [r7, #4]
 80032da:	685b      	ldr	r3, [r3, #4]
 80032dc:	009b      	lsls	r3, r3, #2
 80032de:	fbb2 f3f3 	udiv	r3, r2, r3
 80032e2:	4a32      	ldr	r2, [pc, #200]	; (80033ac <UART_SetConfig+0x22c>)
 80032e4:	fba2 2303 	umull	r2, r3, r2, r3
 80032e8:	095b      	lsrs	r3, r3, #5
 80032ea:	011c      	lsls	r4, r3, #4
 80032ec:	f7ff fce6 	bl	8002cbc <HAL_RCC_GetPCLK1Freq>
 80032f0:	4602      	mov	r2, r0
 80032f2:	4613      	mov	r3, r2
 80032f4:	009b      	lsls	r3, r3, #2
 80032f6:	4413      	add	r3, r2
 80032f8:	009a      	lsls	r2, r3, #2
 80032fa:	441a      	add	r2, r3
 80032fc:	687b      	ldr	r3, [r7, #4]
 80032fe:	685b      	ldr	r3, [r3, #4]
 8003300:	009b      	lsls	r3, r3, #2
 8003302:	fbb2 f5f3 	udiv	r5, r2, r3
 8003306:	f7ff fcd9 	bl	8002cbc <HAL_RCC_GetPCLK1Freq>
 800330a:	4602      	mov	r2, r0
 800330c:	4613      	mov	r3, r2
 800330e:	009b      	lsls	r3, r3, #2
 8003310:	4413      	add	r3, r2
 8003312:	009a      	lsls	r2, r3, #2
 8003314:	441a      	add	r2, r3
 8003316:	687b      	ldr	r3, [r7, #4]
 8003318:	685b      	ldr	r3, [r3, #4]
 800331a:	009b      	lsls	r3, r3, #2
 800331c:	fbb2 f3f3 	udiv	r3, r2, r3
 8003320:	4a22      	ldr	r2, [pc, #136]	; (80033ac <UART_SetConfig+0x22c>)
 8003322:	fba2 2303 	umull	r2, r3, r2, r3
 8003326:	095b      	lsrs	r3, r3, #5
 8003328:	2264      	movs	r2, #100	; 0x64
 800332a:	fb02 f303 	mul.w	r3, r2, r3
 800332e:	1aeb      	subs	r3, r5, r3
 8003330:	011b      	lsls	r3, r3, #4
 8003332:	3332      	adds	r3, #50	; 0x32
 8003334:	4a1d      	ldr	r2, [pc, #116]	; (80033ac <UART_SetConfig+0x22c>)
 8003336:	fba2 2303 	umull	r2, r3, r2, r3
 800333a:	095b      	lsrs	r3, r3, #5
 800333c:	f003 03f0 	and.w	r3, r3, #240	; 0xf0
 8003340:	441c      	add	r4, r3
 8003342:	f7ff fcbb 	bl	8002cbc <HAL_RCC_GetPCLK1Freq>
 8003346:	4602      	mov	r2, r0
 8003348:	4613      	mov	r3, r2
 800334a:	009b      	lsls	r3, r3, #2
 800334c:	4413      	add	r3, r2
 800334e:	009a      	lsls	r2, r3, #2
 8003350:	441a      	add	r2, r3
 8003352:	687b      	ldr	r3, [r7, #4]
 8003354:	685b      	ldr	r3, [r3, #4]
 8003356:	009b      	lsls	r3, r3, #2
 8003358:	fbb2 f5f3 	udiv	r5, r2, r3
 800335c:	f7ff fcae 	bl	8002cbc <HAL_RCC_GetPCLK1Freq>
 8003360:	4602      	mov	r2, r0
 8003362:	4613      	mov	r3, r2
 8003364:	009b      	lsls	r3, r3, #2
 8003366:	4413      	add	r3, r2
 8003368:	009a      	lsls	r2, r3, #2
 800336a:	441a      	add	r2, r3
 800336c:	687b      	ldr	r3, [r7, #4]
 800336e:	685b      	ldr	r3, [r3, #4]
 8003370:	009b      	lsls	r3, r3, #2
 8003372:	fbb2 f3f3 	udiv	r3, r2, r3
 8003376:	4a0d      	ldr	r2, [pc, #52]	; (80033ac <UART_SetConfig+0x22c>)
 8003378:	fba2 2303 	umull	r2, r3, r2, r3
 800337c:	095b      	lsrs	r3, r3, #5
 800337e:	2264      	movs	r2, #100	; 0x64
 8003380:	fb02 f303 	mul.w	r3, r2, r3
 8003384:	1aeb      	subs	r3, r5, r3
 8003386:	011b      	lsls	r3, r3, #4
 8003388:	3332      	adds	r3, #50	; 0x32
 800338a:	4a08      	ldr	r2, [pc, #32]	; (80033ac <UART_SetConfig+0x22c>)
 800338c:	fba2 2303 	umull	r2, r3, r2, r3
 8003390:	095b      	lsrs	r3, r3, #5
 8003392:	f003 020f 	and.w	r2, r3, #15
 8003396:	687b      	ldr	r3, [r7, #4]
 8003398:	681b      	ldr	r3, [r3, #0]
 800339a:	4422      	add	r2, r4
 800339c:	609a      	str	r2, [r3, #8]
}
 800339e:	bf00      	nop
 80033a0:	3710      	adds	r7, #16
 80033a2:	46bd      	mov	sp, r7
 80033a4:	bdb0      	pop	{r4, r5, r7, pc}
 80033a6:	bf00      	nop
 80033a8:	40013800 	.word	0x40013800
 80033ac:	51eb851f 	.word	0x51eb851f

080033b0 <FSMC_NORSRAM_Init>:
  * @param  Device: Pointer to NORSRAM device instance
  * @param  Init: Pointer to NORSRAM Initialization structure
  * @retval HAL status
  */
HAL_StatusTypeDef  FSMC_NORSRAM_Init(FSMC_NORSRAM_TypeDef *Device, FSMC_NORSRAM_InitTypeDef *Init)
{
 80033b0:	b480      	push	{r7}
 80033b2:	b083      	sub	sp, #12
 80033b4:	af00      	add	r7, sp, #0
 80033b6:	6078      	str	r0, [r7, #4]
 80033b8:	6039      	str	r1, [r7, #0]
  assert_param(IS_FSMC_EXTENDED_MODE(Init->ExtendedMode));
  assert_param(IS_FSMC_ASYNWAIT(Init->AsynchronousWait));
  assert_param(IS_FSMC_WRITE_BURST(Init->WriteBurst));

  /* Disable NORSRAM Device */
  __FSMC_NORSRAM_DISABLE(Device, Init->NSBank);
 80033ba:	683b      	ldr	r3, [r7, #0]
 80033bc:	681a      	ldr	r2, [r3, #0]
 80033be:	687b      	ldr	r3, [r7, #4]
 80033c0:	f853 3022 	ldr.w	r3, [r3, r2, lsl #2]
 80033c4:	683a      	ldr	r2, [r7, #0]
 80033c6:	6812      	ldr	r2, [r2, #0]
 80033c8:	f023 0101 	bic.w	r1, r3, #1
 80033cc:	687b      	ldr	r3, [r7, #4]
 80033ce:	f843 1022 	str.w	r1, [r3, r2, lsl #2]

  /* Set NORSRAM device control parameters */
  if (Init->MemoryType == FSMC_MEMORY_TYPE_NOR)
 80033d2:	683b      	ldr	r3, [r7, #0]
 80033d4:	689b      	ldr	r3, [r3, #8]
 80033d6:	2b08      	cmp	r3, #8
 80033d8:	d132      	bne.n	8003440 <FSMC_NORSRAM_Init+0x90>
  {
    MODIFY_REG(Device->BTCR[Init->NSBank], BCR_CLEAR_MASK, (uint32_t)(FSMC_NORSRAM_FLASH_ACCESS_ENABLE
 80033da:	683b      	ldr	r3, [r7, #0]
 80033dc:	681a      	ldr	r2, [r3, #0]
 80033de:	687b      	ldr	r3, [r7, #4]
 80033e0:	f853 2022 	ldr.w	r2, [r3, r2, lsl #2]
 80033e4:	4b31      	ldr	r3, [pc, #196]	; (80034ac <FSMC_NORSRAM_Init+0xfc>)
 80033e6:	4013      	ands	r3, r2
 80033e8:	683a      	ldr	r2, [r7, #0]
 80033ea:	6851      	ldr	r1, [r2, #4]
 80033ec:	683a      	ldr	r2, [r7, #0]
 80033ee:	6892      	ldr	r2, [r2, #8]
 80033f0:	4311      	orrs	r1, r2
 80033f2:	683a      	ldr	r2, [r7, #0]
 80033f4:	68d2      	ldr	r2, [r2, #12]
 80033f6:	4311      	orrs	r1, r2
 80033f8:	683a      	ldr	r2, [r7, #0]
 80033fa:	6912      	ldr	r2, [r2, #16]
 80033fc:	4311      	orrs	r1, r2
 80033fe:	683a      	ldr	r2, [r7, #0]
 8003400:	6952      	ldr	r2, [r2, #20]
 8003402:	4311      	orrs	r1, r2
 8003404:	683a      	ldr	r2, [r7, #0]
 8003406:	6992      	ldr	r2, [r2, #24]
 8003408:	4311      	orrs	r1, r2
 800340a:	683a      	ldr	r2, [r7, #0]
 800340c:	69d2      	ldr	r2, [r2, #28]
 800340e:	4311      	orrs	r1, r2
 8003410:	683a      	ldr	r2, [r7, #0]
 8003412:	6a12      	ldr	r2, [r2, #32]
 8003414:	4311      	orrs	r1, r2
 8003416:	683a      	ldr	r2, [r7, #0]
 8003418:	6a52      	ldr	r2, [r2, #36]	; 0x24
 800341a:	4311      	orrs	r1, r2
 800341c:	683a      	ldr	r2, [r7, #0]
 800341e:	6a92      	ldr	r2, [r2, #40]	; 0x28
 8003420:	4311      	orrs	r1, r2
 8003422:	683a      	ldr	r2, [r7, #0]
 8003424:	6ad2      	ldr	r2, [r2, #44]	; 0x2c
 8003426:	4311      	orrs	r1, r2
 8003428:	683a      	ldr	r2, [r7, #0]
 800342a:	6b12      	ldr	r2, [r2, #48]	; 0x30
 800342c:	430a      	orrs	r2, r1
 800342e:	4313      	orrs	r3, r2
 8003430:	683a      	ldr	r2, [r7, #0]
 8003432:	6812      	ldr	r2, [r2, #0]
 8003434:	f043 0140 	orr.w	r1, r3, #64	; 0x40
 8003438:	687b      	ldr	r3, [r7, #4]
 800343a:	f843 1022 	str.w	r1, [r3, r2, lsl #2]
 800343e:	e02f      	b.n	80034a0 <FSMC_NORSRAM_Init+0xf0>
                                                                     )
              );
  }
  else
  {
    MODIFY_REG(Device->BTCR[Init->NSBank], BCR_CLEAR_MASK, (uint32_t)(FSMC_NORSRAM_FLASH_ACCESS_DISABLE
 8003440:	683b      	ldr	r3, [r7, #0]
 8003442:	681a      	ldr	r2, [r3, #0]
 8003444:	687b      	ldr	r3, [r7, #4]
 8003446:	f853 2022 	ldr.w	r2, [r3, r2, lsl #2]
 800344a:	4b18      	ldr	r3, [pc, #96]	; (80034ac <FSMC_NORSRAM_Init+0xfc>)
 800344c:	4013      	ands	r3, r2
 800344e:	683a      	ldr	r2, [r7, #0]
 8003450:	6851      	ldr	r1, [r2, #4]
 8003452:	683a      	ldr	r2, [r7, #0]
 8003454:	6892      	ldr	r2, [r2, #8]
 8003456:	4311      	orrs	r1, r2
 8003458:	683a      	ldr	r2, [r7, #0]
 800345a:	68d2      	ldr	r2, [r2, #12]
 800345c:	4311      	orrs	r1, r2
 800345e:	683a      	ldr	r2, [r7, #0]
 8003460:	6912      	ldr	r2, [r2, #16]
 8003462:	4311      	orrs	r1, r2
 8003464:	683a      	ldr	r2, [r7, #0]
 8003466:	6952      	ldr	r2, [r2, #20]
 8003468:	4311      	orrs	r1, r2
 800346a:	683a      	ldr	r2, [r7, #0]
 800346c:	6992      	ldr	r2, [r2, #24]
 800346e:	4311      	orrs	r1, r2
 8003470:	683a      	ldr	r2, [r7, #0]
 8003472:	69d2      	ldr	r2, [r2, #28]
 8003474:	4311      	orrs	r1, r2
 8003476:	683a      	ldr	r2, [r7, #0]
 8003478:	6a12      	ldr	r2, [r2, #32]
 800347a:	4311      	orrs	r1, r2
 800347c:	683a      	ldr	r2, [r7, #0]
 800347e:	6a52      	ldr	r2, [r2, #36]	; 0x24
 8003480:	4311      	orrs	r1, r2
 8003482:	683a      	ldr	r2, [r7, #0]
 8003484:	6a92      	ldr	r2, [r2, #40]	; 0x28
 8003486:	4311      	orrs	r1, r2
 8003488:	683a      	ldr	r2, [r7, #0]
 800348a:	6ad2      	ldr	r2, [r2, #44]	; 0x2c
 800348c:	4311      	orrs	r1, r2
 800348e:	683a      	ldr	r2, [r7, #0]
 8003490:	6b12      	ldr	r2, [r2, #48]	; 0x30
 8003492:	4311      	orrs	r1, r2
 8003494:	683a      	ldr	r2, [r7, #0]
 8003496:	6812      	ldr	r2, [r2, #0]
 8003498:	4319      	orrs	r1, r3
 800349a:	687b      	ldr	r3, [r7, #4]
 800349c:	f843 1022 	str.w	r1, [r3, r2, lsl #2]
               | Init->WriteBurst
                                                                     )
              );
  }

  return HAL_OK;
 80034a0:	2300      	movs	r3, #0
}
 80034a2:	4618      	mov	r0, r3
 80034a4:	370c      	adds	r7, #12
 80034a6:	46bd      	mov	sp, r7
 80034a8:	bc80      	pop	{r7}
 80034aa:	4770      	bx	lr
 80034ac:	fff70081 	.word	0xfff70081

080034b0 <FSMC_NORSRAM_Timing_Init>:
  * @param  Timing: Pointer to NORSRAM Timing structure
  * @param  Bank: NORSRAM bank number
  * @retval HAL status
  */
HAL_StatusTypeDef FSMC_NORSRAM_Timing_Init(FSMC_NORSRAM_TypeDef *Device, FSMC_NORSRAM_TimingTypeDef *Timing, uint32_t Bank)
{
 80034b0:	b480      	push	{r7}
 80034b2:	b085      	sub	sp, #20
 80034b4:	af00      	add	r7, sp, #0
 80034b6:	60f8      	str	r0, [r7, #12]
 80034b8:	60b9      	str	r1, [r7, #8]
 80034ba:	607a      	str	r2, [r7, #4]
  assert_param(IS_FSMC_DATA_LATENCY(Timing->DataLatency));
  assert_param(IS_FSMC_ACCESS_MODE(Timing->AccessMode));
  assert_param(IS_FSMC_NORSRAM_BANK(Bank));

  /* Set FSMC_NORSRAM device timing parameters */
  MODIFY_REG(Device->BTCR[Bank + 1U],                                                        \
 80034bc:	687b      	ldr	r3, [r7, #4]
 80034be:	1c5a      	adds	r2, r3, #1
 80034c0:	68fb      	ldr	r3, [r7, #12]
 80034c2:	f853 3022 	ldr.w	r3, [r3, r2, lsl #2]
 80034c6:	f003 4140 	and.w	r1, r3, #3221225472	; 0xc0000000
 80034ca:	68bb      	ldr	r3, [r7, #8]
 80034cc:	681a      	ldr	r2, [r3, #0]
 80034ce:	68bb      	ldr	r3, [r7, #8]
 80034d0:	685b      	ldr	r3, [r3, #4]
 80034d2:	011b      	lsls	r3, r3, #4
 80034d4:	431a      	orrs	r2, r3
 80034d6:	68bb      	ldr	r3, [r7, #8]
 80034d8:	689b      	ldr	r3, [r3, #8]
 80034da:	021b      	lsls	r3, r3, #8
 80034dc:	431a      	orrs	r2, r3
 80034de:	68bb      	ldr	r3, [r7, #8]
 80034e0:	68db      	ldr	r3, [r3, #12]
 80034e2:	041b      	lsls	r3, r3, #16
 80034e4:	431a      	orrs	r2, r3
 80034e6:	68bb      	ldr	r3, [r7, #8]
 80034e8:	691b      	ldr	r3, [r3, #16]
 80034ea:	3b01      	subs	r3, #1
 80034ec:	051b      	lsls	r3, r3, #20
 80034ee:	431a      	orrs	r2, r3
 80034f0:	68bb      	ldr	r3, [r7, #8]
 80034f2:	695b      	ldr	r3, [r3, #20]
 80034f4:	3b02      	subs	r3, #2
 80034f6:	061b      	lsls	r3, r3, #24
 80034f8:	431a      	orrs	r2, r3
 80034fa:	68bb      	ldr	r3, [r7, #8]
 80034fc:	699b      	ldr	r3, [r3, #24]
 80034fe:	4313      	orrs	r3, r2
 8003500:	687a      	ldr	r2, [r7, #4]
 8003502:	3201      	adds	r2, #1
 8003504:	4319      	orrs	r1, r3
 8003506:	68fb      	ldr	r3, [r7, #12]
 8003508:	f843 1022 	str.w	r1, [r3, r2, lsl #2]
                        ((Timing->BusTurnAroundDuration)  << FSMC_BTRx_BUSTURN_Pos)       | \
                        (((Timing->CLKDivision) - 1U)     << FSMC_BTRx_CLKDIV_Pos)        | \
                        (((Timing->DataLatency) - 2U)     << FSMC_BTRx_DATLAT_Pos)        | \
                        (Timing->AccessMode)));

  return HAL_OK;
 800350c:	2300      	movs	r3, #0
}
 800350e:	4618      	mov	r0, r3
 8003510:	3714      	adds	r7, #20
 8003512:	46bd      	mov	sp, r7
 8003514:	bc80      	pop	{r7}
 8003516:	4770      	bx	lr

08003518 <FSMC_NORSRAM_Extended_Timing_Init>:
  *            @arg FSMC_EXTENDED_MODE_DISABLE
  *            @arg FSMC_EXTENDED_MODE_ENABLE
  * @retval HAL status
  */
HAL_StatusTypeDef  FSMC_NORSRAM_Extended_Timing_Init(FSMC_NORSRAM_EXTENDED_TypeDef *Device, FSMC_NORSRAM_TimingTypeDef *Timing, uint32_t Bank, uint32_t ExtendedMode)
{
 8003518:	b480      	push	{r7}
 800351a:	b085      	sub	sp, #20
 800351c:	af00      	add	r7, sp, #0
 800351e:	60f8      	str	r0, [r7, #12]
 8003520:	60b9      	str	r1, [r7, #8]
 8003522:	607a      	str	r2, [r7, #4]
 8003524:	603b      	str	r3, [r7, #0]
  /* Check the parameters */
  assert_param(IS_FSMC_EXTENDED_MODE(ExtendedMode));

  /* Set NORSRAM device timing register for write configuration, if extended mode is used */
  if(ExtendedMode == FSMC_EXTENDED_MODE_ENABLE)
 8003526:	683b      	ldr	r3, [r7, #0]
 8003528:	f5b3 4f80 	cmp.w	r3, #16384	; 0x4000
 800352c:	d11d      	bne.n	800356a <FSMC_NORSRAM_Extended_Timing_Init+0x52>
    assert_param(IS_FSMC_ACCESS_MODE(Timing->AccessMode));
    assert_param(IS_FSMC_NORSRAM_BANK(Bank));

    /* Set NORSRAM device timing register for write configuration, if extended mode is used */
#if defined(STM32F101xE) || defined(STM32F103xE) || defined(STM32F101xG) || defined(STM32F103xG)
    MODIFY_REG(Device->BWTR[Bank],                                                      \
 800352e:	68fb      	ldr	r3, [r7, #12]
 8003530:	687a      	ldr	r2, [r7, #4]
 8003532:	f853 2022 	ldr.w	r2, [r3, r2, lsl #2]
 8003536:	4b13      	ldr	r3, [pc, #76]	; (8003584 <FSMC_NORSRAM_Extended_Timing_Init+0x6c>)
 8003538:	4013      	ands	r3, r2
 800353a:	68ba      	ldr	r2, [r7, #8]
 800353c:	6811      	ldr	r1, [r2, #0]
 800353e:	68ba      	ldr	r2, [r7, #8]
 8003540:	6852      	ldr	r2, [r2, #4]
 8003542:	0112      	lsls	r2, r2, #4
 8003544:	4311      	orrs	r1, r2
 8003546:	68ba      	ldr	r2, [r7, #8]
 8003548:	6892      	ldr	r2, [r2, #8]
 800354a:	0212      	lsls	r2, r2, #8
 800354c:	4311      	orrs	r1, r2
 800354e:	68ba      	ldr	r2, [r7, #8]
 8003550:	6992      	ldr	r2, [r2, #24]
 8003552:	4311      	orrs	r1, r2
 8003554:	68ba      	ldr	r2, [r7, #8]
 8003556:	68d2      	ldr	r2, [r2, #12]
 8003558:	0412      	lsls	r2, r2, #16
 800355a:	430a      	orrs	r2, r1
 800355c:	ea43 0102 	orr.w	r1, r3, r2
 8003560:	68fb      	ldr	r3, [r7, #12]
 8003562:	687a      	ldr	r2, [r7, #4]
 8003564:	f843 1022 	str.w	r1, [r3, r2, lsl #2]
 8003568:	e005      	b.n	8003576 <FSMC_NORSRAM_Extended_Timing_Init+0x5e>
                          (((Timing->DataLatency) - 2U)  << FSMC_BWTRx_DATLAT_Pos)));
#endif /* STM32F101xE || STM32F103xE || STM32F101xG || STM32F103xG */
  }
  else
  {
    Device->BWTR[Bank] = 0x0FFFFFFFU;
 800356a:	68fb      	ldr	r3, [r7, #12]
 800356c:	687a      	ldr	r2, [r7, #4]
 800356e:	f06f 4170 	mvn.w	r1, #4026531840	; 0xf0000000
 8003572:	f843 1022 	str.w	r1, [r3, r2, lsl #2]
  }

  return HAL_OK;
 8003576:	2300      	movs	r3, #0
}
 8003578:	4618      	mov	r0, r3
 800357a:	3714      	adds	r7, #20
 800357c:	46bd      	mov	sp, r7
 800357e:	bc80      	pop	{r7}
 8003580:	4770      	bx	lr
 8003582:	bf00      	nop
 8003584:	cff00000 	.word	0xcff00000

08003588 <memset>:
 8003588:	4603      	mov	r3, r0
 800358a:	4402      	add	r2, r0
 800358c:	4293      	cmp	r3, r2
 800358e:	d100      	bne.n	8003592 <memset+0xa>
 8003590:	4770      	bx	lr
 8003592:	f803 1b01 	strb.w	r1, [r3], #1
 8003596:	e7f9      	b.n	800358c <memset+0x4>

08003598 <__libc_init_array>:
 8003598:	b570      	push	{r4, r5, r6, lr}
 800359a:	2600      	movs	r6, #0
 800359c:	4d0c      	ldr	r5, [pc, #48]	; (80035d0 <__libc_init_array+0x38>)
 800359e:	4c0d      	ldr	r4, [pc, #52]	; (80035d4 <__libc_init_array+0x3c>)
 80035a0:	1b64      	subs	r4, r4, r5
 80035a2:	10a4      	asrs	r4, r4, #2
 80035a4:	42a6      	cmp	r6, r4
 80035a6:	d109      	bne.n	80035bc <__libc_init_array+0x24>
 80035a8:	f000 f81a 	bl	80035e0 <_init>
 80035ac:	2600      	movs	r6, #0
 80035ae:	4d0a      	ldr	r5, [pc, #40]	; (80035d8 <__libc_init_array+0x40>)
 80035b0:	4c0a      	ldr	r4, [pc, #40]	; (80035dc <__libc_init_array+0x44>)
 80035b2:	1b64      	subs	r4, r4, r5
 80035b4:	10a4      	asrs	r4, r4, #2
 80035b6:	42a6      	cmp	r6, r4
 80035b8:	d105      	bne.n	80035c6 <__libc_init_array+0x2e>
 80035ba:	bd70      	pop	{r4, r5, r6, pc}
 80035bc:	f855 3b04 	ldr.w	r3, [r5], #4
 80035c0:	4798      	blx	r3
 80035c2:	3601      	adds	r6, #1
 80035c4:	e7ee      	b.n	80035a4 <__libc_init_array+0xc>
 80035c6:	f855 3b04 	ldr.w	r3, [r5], #4
 80035ca:	4798      	blx	r3
 80035cc:	3601      	adds	r6, #1
 80035ce:	e7f2      	b.n	80035b6 <__libc_init_array+0x1e>
 80035d0:	08003c1c 	.word	0x08003c1c
 80035d4:	08003c1c 	.word	0x08003c1c
 80035d8:	08003c1c 	.word	0x08003c1c
 80035dc:	08003c20 	.word	0x08003c20

080035e0 <_init>:
 80035e0:	b5f8      	push	{r3, r4, r5, r6, r7, lr}
 80035e2:	bf00      	nop
 80035e4:	bcf8      	pop	{r3, r4, r5, r6, r7}
 80035e6:	bc08      	pop	{r3}
 80035e8:	469e      	mov	lr, r3
 80035ea:	4770      	bx	lr

080035ec <_fini>:
 80035ec:	b5f8      	push	{r3, r4, r5, r6, r7, lr}
 80035ee:	bf00      	nop
 80035f0:	bcf8      	pop	{r3, r4, r5, r6, r7}
 80035f2:	bc08      	pop	{r3}
 80035f4:	469e      	mov	lr, r3
 80035f6:	4770      	bx	lr
